
bomb:     file format elf32-i386


Disassembly of section .init:

080486f4 <_init>:
 80486f4:	53                   	push   %ebx
 80486f5:	83 ec 08             	sub    $0x8,%esp
 80486f8:	e8 13 02 00 00       	call   8048910 <__x86.get_pc_thunk.bx>
 80486fd:	81 c3 03 39 00 00    	add    $0x3903,%ebx
 8048703:	8b 83 fc ff ff ff    	mov    -0x4(%ebx),%eax
 8048709:	85 c0                	test   %eax,%eax
 804870b:	74 05                	je     8048712 <_init+0x1e>
 804870d:	e8 be 01 00 00       	call   80488d0 <__sprintf_chk@plt+0x10>
 8048712:	83 c4 08             	add    $0x8,%esp
 8048715:	5b                   	pop    %ebx
 8048716:	c3                   	ret    

Disassembly of section .plt:

08048720 <read@plt-0x10>:
 8048720:	ff 35 04 c0 04 08    	pushl  0x804c004
 8048726:	ff 25 08 c0 04 08    	jmp    *0x804c008
 804872c:	00 00                	add    %al,(%eax)
	...

08048730 <read@plt>:
 8048730:	ff 25 0c c0 04 08    	jmp    *0x804c00c
 8048736:	68 00 00 00 00       	push   $0x0
 804873b:	e9 e0 ff ff ff       	jmp    8048720 <_init+0x2c>

08048740 <fflush@plt>:
 8048740:	ff 25 10 c0 04 08    	jmp    *0x804c010
 8048746:	68 08 00 00 00       	push   $0x8
 804874b:	e9 d0 ff ff ff       	jmp    8048720 <_init+0x2c>

08048750 <fgets@plt>:
 8048750:	ff 25 14 c0 04 08    	jmp    *0x804c014
 8048756:	68 10 00 00 00       	push   $0x10
 804875b:	e9 c0 ff ff ff       	jmp    8048720 <_init+0x2c>

08048760 <signal@plt>:
 8048760:	ff 25 18 c0 04 08    	jmp    *0x804c018
 8048766:	68 18 00 00 00       	push   $0x18
 804876b:	e9 b0 ff ff ff       	jmp    8048720 <_init+0x2c>

08048770 <sleep@plt>:
 8048770:	ff 25 1c c0 04 08    	jmp    *0x804c01c
 8048776:	68 20 00 00 00       	push   $0x20
 804877b:	e9 a0 ff ff ff       	jmp    8048720 <_init+0x2c>

08048780 <alarm@plt>:
 8048780:	ff 25 20 c0 04 08    	jmp    *0x804c020
 8048786:	68 28 00 00 00       	push   $0x28
 804878b:	e9 90 ff ff ff       	jmp    8048720 <_init+0x2c>

08048790 <__stack_chk_fail@plt>:
 8048790:	ff 25 24 c0 04 08    	jmp    *0x804c024
 8048796:	68 30 00 00 00       	push   $0x30
 804879b:	e9 80 ff ff ff       	jmp    8048720 <_init+0x2c>

080487a0 <strcpy@plt>:
 80487a0:	ff 25 28 c0 04 08    	jmp    *0x804c028
 80487a6:	68 38 00 00 00       	push   $0x38
 80487ab:	e9 70 ff ff ff       	jmp    8048720 <_init+0x2c>

080487b0 <getenv@plt>:
 80487b0:	ff 25 2c c0 04 08    	jmp    *0x804c02c
 80487b6:	68 40 00 00 00       	push   $0x40
 80487bb:	e9 60 ff ff ff       	jmp    8048720 <_init+0x2c>

080487c0 <puts@plt>:
 80487c0:	ff 25 30 c0 04 08    	jmp    *0x804c030
 80487c6:	68 48 00 00 00       	push   $0x48
 80487cb:	e9 50 ff ff ff       	jmp    8048720 <_init+0x2c>

080487d0 <__memmove_chk@plt>:
 80487d0:	ff 25 34 c0 04 08    	jmp    *0x804c034
 80487d6:	68 50 00 00 00       	push   $0x50
 80487db:	e9 40 ff ff ff       	jmp    8048720 <_init+0x2c>

080487e0 <exit@plt>:
 80487e0:	ff 25 38 c0 04 08    	jmp    *0x804c038
 80487e6:	68 58 00 00 00       	push   $0x58
 80487eb:	e9 30 ff ff ff       	jmp    8048720 <_init+0x2c>

080487f0 <__libc_start_main@plt>:
 80487f0:	ff 25 3c c0 04 08    	jmp    *0x804c03c
 80487f6:	68 60 00 00 00       	push   $0x60
 80487fb:	e9 20 ff ff ff       	jmp    8048720 <_init+0x2c>

08048800 <write@plt>:
 8048800:	ff 25 40 c0 04 08    	jmp    *0x804c040
 8048806:	68 68 00 00 00       	push   $0x68
 804880b:	e9 10 ff ff ff       	jmp    8048720 <_init+0x2c>

08048810 <__isoc99_sscanf@plt>:
 8048810:	ff 25 44 c0 04 08    	jmp    *0x804c044
 8048816:	68 70 00 00 00       	push   $0x70
 804881b:	e9 00 ff ff ff       	jmp    8048720 <_init+0x2c>

08048820 <fopen@plt>:
 8048820:	ff 25 48 c0 04 08    	jmp    *0x804c048
 8048826:	68 78 00 00 00       	push   $0x78
 804882b:	e9 f0 fe ff ff       	jmp    8048720 <_init+0x2c>

08048830 <__errno_location@plt>:
 8048830:	ff 25 4c c0 04 08    	jmp    *0x804c04c
 8048836:	68 80 00 00 00       	push   $0x80
 804883b:	e9 e0 fe ff ff       	jmp    8048720 <_init+0x2c>

08048840 <__printf_chk@plt>:
 8048840:	ff 25 50 c0 04 08    	jmp    *0x804c050
 8048846:	68 88 00 00 00       	push   $0x88
 804884b:	e9 d0 fe ff ff       	jmp    8048720 <_init+0x2c>

08048850 <socket@plt>:
 8048850:	ff 25 54 c0 04 08    	jmp    *0x804c054
 8048856:	68 90 00 00 00       	push   $0x90
 804885b:	e9 c0 fe ff ff       	jmp    8048720 <_init+0x2c>

08048860 <__fprintf_chk@plt>:
 8048860:	ff 25 58 c0 04 08    	jmp    *0x804c058
 8048866:	68 98 00 00 00       	push   $0x98
 804886b:	e9 b0 fe ff ff       	jmp    8048720 <_init+0x2c>

08048870 <gethostbyname@plt>:
 8048870:	ff 25 5c c0 04 08    	jmp    *0x804c05c
 8048876:	68 a0 00 00 00       	push   $0xa0
 804887b:	e9 a0 fe ff ff       	jmp    8048720 <_init+0x2c>

08048880 <strtol@plt>:
 8048880:	ff 25 60 c0 04 08    	jmp    *0x804c060
 8048886:	68 a8 00 00 00       	push   $0xa8
 804888b:	e9 90 fe ff ff       	jmp    8048720 <_init+0x2c>

08048890 <connect@plt>:
 8048890:	ff 25 64 c0 04 08    	jmp    *0x804c064
 8048896:	68 b0 00 00 00       	push   $0xb0
 804889b:	e9 80 fe ff ff       	jmp    8048720 <_init+0x2c>

080488a0 <close@plt>:
 80488a0:	ff 25 68 c0 04 08    	jmp    *0x804c068
 80488a6:	68 b8 00 00 00       	push   $0xb8
 80488ab:	e9 70 fe ff ff       	jmp    8048720 <_init+0x2c>

080488b0 <__ctype_b_loc@plt>:
 80488b0:	ff 25 6c c0 04 08    	jmp    *0x804c06c
 80488b6:	68 c0 00 00 00       	push   $0xc0
 80488bb:	e9 60 fe ff ff       	jmp    8048720 <_init+0x2c>

080488c0 <__sprintf_chk@plt>:
 80488c0:	ff 25 70 c0 04 08    	jmp    *0x804c070
 80488c6:	68 c8 00 00 00       	push   $0xc8
 80488cb:	e9 50 fe ff ff       	jmp    8048720 <_init+0x2c>

Disassembly of section .plt.got:

080488d0 <.plt.got>:
 80488d0:	ff 25 fc bf 04 08    	jmp    *0x804bffc
 80488d6:	66 90                	xchg   %ax,%ax

Disassembly of section .text:

080488e0 <_start>:
 80488e0:	31 ed                	xor    %ebp,%ebp
 80488e2:	5e                   	pop    %esi
 80488e3:	89 e1                	mov    %esp,%ecx
 80488e5:	83 e4 f0             	and    $0xfffffff0,%esp
 80488e8:	50                   	push   %eax
 80488e9:	54                   	push   %esp
 80488ea:	52                   	push   %edx
 80488eb:	68 40 9f 04 08       	push   $0x8049f40
 80488f0:	68 e0 9e 04 08       	push   $0x8049ee0
 80488f5:	51                   	push   %ecx
 80488f6:	56                   	push   %esi
 80488f7:	68 db 89 04 08       	push   $0x80489db
 80488fc:	e8 ef fe ff ff       	call   80487f0 <__libc_start_main@plt>
 8048901:	f4                   	hlt    
 8048902:	66 90                	xchg   %ax,%ax
 8048904:	66 90                	xchg   %ax,%ax
 8048906:	66 90                	xchg   %ax,%ax
 8048908:	66 90                	xchg   %ax,%ax
 804890a:	66 90                	xchg   %ax,%ax
 804890c:	66 90                	xchg   %ax,%ax
 804890e:	66 90                	xchg   %ax,%ax

08048910 <__x86.get_pc_thunk.bx>:
 8048910:	8b 1c 24             	mov    (%esp),%ebx
 8048913:	c3                   	ret    
 8048914:	66 90                	xchg   %ax,%ax
 8048916:	66 90                	xchg   %ax,%ax
 8048918:	66 90                	xchg   %ax,%ax
 804891a:	66 90                	xchg   %ax,%ax
 804891c:	66 90                	xchg   %ax,%ax
 804891e:	66 90                	xchg   %ax,%ax

08048920 <deregister_tm_clones>:
 8048920:	b8 c3 c3 04 08       	mov    $0x804c3c3,%eax
 8048925:	2d c0 c3 04 08       	sub    $0x804c3c0,%eax
 804892a:	83 f8 06             	cmp    $0x6,%eax
 804892d:	76 1a                	jbe    8048949 <deregister_tm_clones+0x29>
 804892f:	b8 00 00 00 00       	mov    $0x0,%eax
 8048934:	85 c0                	test   %eax,%eax
 8048936:	74 11                	je     8048949 <deregister_tm_clones+0x29>
 8048938:	55                   	push   %ebp
 8048939:	89 e5                	mov    %esp,%ebp
 804893b:	83 ec 14             	sub    $0x14,%esp
 804893e:	68 c0 c3 04 08       	push   $0x804c3c0
 8048943:	ff d0                	call   *%eax
 8048945:	83 c4 10             	add    $0x10,%esp
 8048948:	c9                   	leave  
 8048949:	f3 c3                	repz ret 
 804894b:	90                   	nop
 804894c:	8d 74 26 00          	lea    0x0(%esi,%eiz,1),%esi

08048950 <register_tm_clones>:
 8048950:	b8 c0 c3 04 08       	mov    $0x804c3c0,%eax
 8048955:	2d c0 c3 04 08       	sub    $0x804c3c0,%eax
 804895a:	c1 f8 02             	sar    $0x2,%eax
 804895d:	89 c2                	mov    %eax,%edx
 804895f:	c1 ea 1f             	shr    $0x1f,%edx
 8048962:	01 d0                	add    %edx,%eax
 8048964:	d1 f8                	sar    %eax
 8048966:	74 1b                	je     8048983 <register_tm_clones+0x33>
 8048968:	ba 00 00 00 00       	mov    $0x0,%edx
 804896d:	85 d2                	test   %edx,%edx
 804896f:	74 12                	je     8048983 <register_tm_clones+0x33>
 8048971:	55                   	push   %ebp
 8048972:	89 e5                	mov    %esp,%ebp
 8048974:	83 ec 10             	sub    $0x10,%esp
 8048977:	50                   	push   %eax
 8048978:	68 c0 c3 04 08       	push   $0x804c3c0
 804897d:	ff d2                	call   *%edx
 804897f:	83 c4 10             	add    $0x10,%esp
 8048982:	c9                   	leave  
 8048983:	f3 c3                	repz ret 
 8048985:	8d 74 26 00          	lea    0x0(%esi,%eiz,1),%esi
 8048989:	8d bc 27 00 00 00 00 	lea    0x0(%edi,%eiz,1),%edi

08048990 <__do_global_dtors_aux>:
 8048990:	80 3d e8 c3 04 08 00 	cmpb   $0x0,0x804c3e8
 8048997:	75 13                	jne    80489ac <__do_global_dtors_aux+0x1c>
 8048999:	55                   	push   %ebp
 804899a:	89 e5                	mov    %esp,%ebp
 804899c:	83 ec 08             	sub    $0x8,%esp
 804899f:	e8 7c ff ff ff       	call   8048920 <deregister_tm_clones>
 80489a4:	c6 05 e8 c3 04 08 01 	movb   $0x1,0x804c3e8
 80489ab:	c9                   	leave  
 80489ac:	f3 c3                	repz ret 
 80489ae:	66 90                	xchg   %ax,%ax

080489b0 <frame_dummy>:
 80489b0:	b8 10 bf 04 08       	mov    $0x804bf10,%eax
 80489b5:	8b 10                	mov    (%eax),%edx
 80489b7:	85 d2                	test   %edx,%edx
 80489b9:	75 05                	jne    80489c0 <frame_dummy+0x10>
 80489bb:	eb 93                	jmp    8048950 <register_tm_clones>
 80489bd:	8d 76 00             	lea    0x0(%esi),%esi
 80489c0:	ba 00 00 00 00       	mov    $0x0,%edx
 80489c5:	85 d2                	test   %edx,%edx
 80489c7:	74 f2                	je     80489bb <frame_dummy+0xb>
 80489c9:	55                   	push   %ebp
 80489ca:	89 e5                	mov    %esp,%ebp
 80489cc:	83 ec 14             	sub    $0x14,%esp
 80489cf:	50                   	push   %eax
 80489d0:	ff d2                	call   *%edx
 80489d2:	83 c4 10             	add    $0x10,%esp
 80489d5:	c9                   	leave  
 80489d6:	e9 75 ff ff ff       	jmp    8048950 <register_tm_clones>

080489db <main>:
 80489db:	8d 4c 24 04          	lea    0x4(%esp),%ecx
 80489df:	83 e4 f0             	and    $0xfffffff0,%esp
 80489e2:	ff 71 fc             	pushl  -0x4(%ecx)
 80489e5:	55                   	push   %ebp
 80489e6:	89 e5                	mov    %esp,%ebp
 80489e8:	53                   	push   %ebx
 80489e9:	51                   	push   %ecx
 80489ea:	8b 01                	mov    (%ecx),%eax
 80489ec:	8b 59 04             	mov    0x4(%ecx),%ebx
 80489ef:	83 f8 01             	cmp    $0x1,%eax
 80489f2:	75 0c                	jne    8048a00 <main+0x25>
 80489f4:	a1 e0 c3 04 08       	mov    0x804c3e0,%eax
 80489f9:	a3 f0 c3 04 08       	mov    %eax,0x804c3f0
 80489fe:	eb 5b                	jmp    8048a5b <main+0x80>
 8048a00:	83 f8 02             	cmp    $0x2,%eax
 8048a03:	75 39                	jne    8048a3e <main+0x63>
 8048a05:	83 ec 08             	sub    $0x8,%esp
 8048a08:	68 60 9f 04 08       	push   $0x8049f60
 8048a0d:	ff 73 04             	pushl  0x4(%ebx)
 8048a10:	e8 0b fe ff ff       	call   8048820 <fopen@plt>
 8048a15:	a3 f0 c3 04 08       	mov    %eax,0x804c3f0
 8048a1a:	83 c4 10             	add    $0x10,%esp
 8048a1d:	85 c0                	test   %eax,%eax
 8048a1f:	75 3a                	jne    8048a5b <main+0x80>
 8048a21:	ff 73 04             	pushl  0x4(%ebx)
 8048a24:	ff 33                	pushl  (%ebx)
 8048a26:	68 62 9f 04 08       	push   $0x8049f62
 8048a2b:	6a 01                	push   $0x1
 8048a2d:	e8 0e fe ff ff       	call   8048840 <__printf_chk@plt>
 8048a32:	c7 04 24 08 00 00 00 	movl   $0x8,(%esp)
 8048a39:	e8 a2 fd ff ff       	call   80487e0 <exit@plt>
 8048a3e:	83 ec 04             	sub    $0x4,%esp
 8048a41:	ff 33                	pushl  (%ebx)
 8048a43:	68 7f 9f 04 08       	push   $0x8049f7f
 8048a48:	6a 01                	push   $0x1
 8048a4a:	e8 f1 fd ff ff       	call   8048840 <__printf_chk@plt>
 8048a4f:	c7 04 24 08 00 00 00 	movl   $0x8,(%esp)
 8048a56:	e8 85 fd ff ff       	call   80487e0 <exit@plt>
 8048a5b:	e8 81 05 00 00       	call   8048fe1 <initialize_bomb>
 8048a60:	83 ec 0c             	sub    $0xc,%esp
 8048a63:	68 e4 9f 04 08       	push   $0x8049fe4
 8048a68:	e8 53 fd ff ff       	call   80487c0 <puts@plt>
 8048a6d:	c7 04 24 20 a0 04 08 	movl   $0x804a020,(%esp)
 8048a74:	e8 47 fd ff ff       	call   80487c0 <puts@plt>
 8048a79:	e8 5a 07 00 00       	call   80491d8 <read_line>
 8048a7e:	89 04 24             	mov    %eax,(%esp)
 8048a81:	e8 ad 00 00 00       	call   8048b33 <phase_1>
 8048a86:	e8 46 08 00 00       	call   80492d1 <phase_defused>
 8048a8b:	c7 04 24 4c a0 04 08 	movl   $0x804a04c,(%esp)
 8048a92:	e8 29 fd ff ff       	call   80487c0 <puts@plt>
 8048a97:	e8 3c 07 00 00       	call   80491d8 <read_line>
 8048a9c:	89 04 24             	mov    %eax,(%esp)
 8048a9f:	e8 b0 00 00 00       	call   8048b54 <phase_2>
 8048aa4:	e8 28 08 00 00       	call   80492d1 <phase_defused>
 8048aa9:	c7 04 24 99 9f 04 08 	movl   $0x8049f99,(%esp)
 8048ab0:	e8 0b fd ff ff       	call   80487c0 <puts@plt>
 8048ab5:	e8 1e 07 00 00       	call   80491d8 <read_line>
 8048aba:	89 04 24             	mov    %eax,(%esp)
 8048abd:	e8 f3 00 00 00       	call   8048bb5 <phase_3>
 8048ac2:	e8 0a 08 00 00       	call   80492d1 <phase_defused>
 8048ac7:	c7 04 24 b7 9f 04 08 	movl   $0x8049fb7,(%esp)
 8048ace:	e8 ed fc ff ff       	call   80487c0 <puts@plt>
 8048ad3:	e8 00 07 00 00       	call   80491d8 <read_line>
 8048ad8:	89 04 24             	mov    %eax,(%esp)
 8048adb:	e8 38 01 00 00       	call   8048c18 <phase_4>
 8048ae0:	e8 ec 07 00 00       	call   80492d1 <phase_defused>
 8048ae5:	c7 04 24 78 a0 04 08 	movl   $0x804a078,(%esp)
 8048aec:	e8 cf fc ff ff       	call   80487c0 <puts@plt>
 8048af1:	e8 e2 06 00 00       	call   80491d8 <read_line>
 8048af6:	89 04 24             	mov    %eax,(%esp)
 8048af9:	e8 de 01 00 00       	call   8048cdc <phase_5>
 8048afe:	e8 ce 07 00 00       	call   80492d1 <phase_defused>
 8048b03:	c7 04 24 c6 9f 04 08 	movl   $0x8049fc6,(%esp)
 8048b0a:	e8 b1 fc ff ff       	call   80487c0 <puts@plt>
 8048b0f:	e8 c4 06 00 00       	call   80491d8 <read_line>
 8048b14:	89 04 24             	mov    %eax,(%esp)
 8048b17:	e8 35 02 00 00       	call   8048d51 <phase_6>
 8048b1c:	e8 b0 07 00 00       	call   80492d1 <phase_defused>
 8048b21:	83 c4 10             	add    $0x10,%esp
 8048b24:	b8 00 00 00 00       	mov    $0x0,%eax
 8048b29:	8d 65 f8             	lea    -0x8(%ebp),%esp
 8048b2c:	59                   	pop    %ecx
 8048b2d:	5b                   	pop    %ebx
 8048b2e:	5d                   	pop    %ebp
 8048b2f:	8d 61 fc             	lea    -0x4(%ecx),%esp
 8048b32:	c3                   	ret    

08048b33 <phase_1>:
 8048b33:	83 ec 14             	sub    $0x14,%esp
 8048b36:	68 9c a0 04 08       	push   $0x804a09c
 8048b3b:	ff 74 24 1c          	pushl  0x1c(%esp)
 8048b3f:	e8 38 04 00 00       	call   8048f7c <strings_not_equal>
 8048b44:	83 c4 10             	add    $0x10,%esp
 8048b47:	85 c0                	test   %eax,%eax
 8048b49:	74 05                	je     8048b50 <phase_1+0x1d>
 8048b4b:	e8 10 06 00 00       	call   8049160 <explode_bomb>
 8048b50:	83 c4 0c             	add    $0xc,%esp
 8048b53:	c3                   	ret    

08048b54 <phase_2>:
 8048b54:	53                   	push   %ebx
 8048b55:	83 ec 30             	sub    $0x30,%esp
 8048b58:	65 a1 14 00 00 00    	mov    %gs:0x14,%eax
 8048b5e:	89 44 24 24          	mov    %eax,0x24(%esp)
 8048b62:	31 c0                	xor    %eax,%eax
 8048b64:	8d 44 24 0c          	lea    0xc(%esp),%eax
 8048b68:	50                   	push   %eax
 8048b69:	ff 74 24 3c          	pushl  0x3c(%esp)
 8048b6d:	e8 2b 06 00 00       	call   804919d <read_six_numbers>
 8048b72:	83 c4 10             	add    $0x10,%esp
 8048b75:	83 7c 24 04 00       	cmpl   $0x0,0x4(%esp)
 8048b7a:	79 05                	jns    8048b81 <phase_2+0x2d>
 8048b7c:	e8 df 05 00 00       	call   8049160 <explode_bomb>
 8048b81:	bb 01 00 00 00       	mov    $0x1,%ebx
 8048b86:	89 d8                	mov    %ebx,%eax
 8048b88:	03 04 9c             	add    (%esp,%ebx,4),%eax
 8048b8b:	39 44 9c 04          	cmp    %eax,0x4(%esp,%ebx,4)
 8048b8f:	74 05                	je     8048b96 <phase_2+0x42>
 8048b91:	e8 ca 05 00 00       	call   8049160 <explode_bomb>
 8048b96:	83 c3 01             	add    $0x1,%ebx
 8048b99:	83 fb 06             	cmp    $0x6,%ebx
 8048b9c:	75 e8                	jne    8048b86 <phase_2+0x32>
 8048b9e:	8b 44 24 1c          	mov    0x1c(%esp),%eax
 8048ba2:	65 33 05 14 00 00 00 	xor    %gs:0x14,%eax
 8048ba9:	74 05                	je     8048bb0 <phase_2+0x5c>
 8048bab:	e8 e0 fb ff ff       	call   8048790 <__stack_chk_fail@plt>
 8048bb0:	83 c4 28             	add    $0x28,%esp
 8048bb3:	5b                   	pop    %ebx
 8048bb4:	c3                   	ret    

08048bb5 <phase_3>:
 8048bb5:	56                   	push   %esi
 8048bb6:	53                   	push   %ebx
 8048bb7:	83 ec 2c             	sub    $0x2c,%esp
 8048bba:	65 a1 14 00 00 00    	mov    %gs:0x14,%eax
 8048bc0:	89 44 24 24          	mov    %eax,0x24(%esp)
 8048bc4:	31 c0                	xor    %eax,%eax
 8048bc6:	8d 44 24 0c          	lea    0xc(%esp),%eax
 8048bca:	50                   	push   %eax
 8048bcb:	ff 74 24 3c          	pushl  0x3c(%esp)
 8048bcf:	e8 c9 05 00 00       	call   804919d <read_six_numbers>
 8048bd4:	83 c4 10             	add    $0x10,%esp
 8048bd7:	83 7c 24 04 01       	cmpl   $0x1,0x4(%esp)
 8048bdc:	74 05                	je     8048be3 <phase_3+0x2e>
 8048bde:	e8 7d 05 00 00       	call   8049160 <explode_bomb>
 8048be3:	8d 5c 24 04          	lea    0x4(%esp),%ebx
 8048be7:	8d 74 24 18          	lea    0x18(%esp),%esi
 8048beb:	8b 03                	mov    (%ebx),%eax
 8048bed:	01 c0                	add    %eax,%eax
 8048bef:	39 43 04             	cmp    %eax,0x4(%ebx)
 8048bf2:	74 05                	je     8048bf9 <phase_3+0x44>
 8048bf4:	e8 67 05 00 00       	call   8049160 <explode_bomb>
 8048bf9:	83 c3 04             	add    $0x4,%ebx
 8048bfc:	39 f3                	cmp    %esi,%ebx
 8048bfe:	75 eb                	jne    8048beb <phase_3+0x36>
 8048c00:	8b 44 24 1c          	mov    0x1c(%esp),%eax
 8048c04:	65 33 05 14 00 00 00 	xor    %gs:0x14,%eax
 8048c0b:	74 05                	je     8048c12 <phase_3+0x5d>
 8048c0d:	e8 7e fb ff ff       	call   8048790 <__stack_chk_fail@plt>
 8048c12:	83 c4 24             	add    $0x24,%esp
 8048c15:	5b                   	pop    %ebx
 8048c16:	5e                   	pop    %esi
 8048c17:	c3                   	ret    

08048c18 <phase_4>:
 8048c18:	56                   	push   %esi
 8048c19:	53                   	push   %ebx
 8048c1a:	83 ec 2c             	sub    $0x2c,%esp
 8048c1d:	65 a1 14 00 00 00    	mov    %gs:0x14,%eax
 8048c23:	89 44 24 24          	mov    %eax,0x24(%esp)
 8048c27:	31 c0                	xor    %eax,%eax
 8048c29:	8d 44 24 0c          	lea    0xc(%esp),%eax
 8048c2d:	50                   	push   %eax
 8048c2e:	ff 74 24 3c          	pushl  0x3c(%esp)
 8048c32:	e8 66 05 00 00       	call   804919d <read_six_numbers>
 8048c37:	83 c4 10             	add    $0x10,%esp
 8048c3a:	83 7c 24 04 01       	cmpl   $0x1,0x4(%esp)
 8048c3f:	75 07                	jne    8048c48 <phase_4+0x30>
 8048c41:	83 7c 24 08 01       	cmpl   $0x1,0x8(%esp)
 8048c46:	74 05                	je     8048c4d <phase_4+0x35>
 8048c48:	e8 13 05 00 00       	call   8049160 <explode_bomb>
 8048c4d:	8d 5c 24 04          	lea    0x4(%esp),%ebx
 8048c51:	8d 74 24 14          	lea    0x14(%esp),%esi
 8048c55:	8b 43 04             	mov    0x4(%ebx),%eax
 8048c58:	03 03                	add    (%ebx),%eax
 8048c5a:	39 43 08             	cmp    %eax,0x8(%ebx)
 8048c5d:	74 05                	je     8048c64 <phase_4+0x4c>
 8048c5f:	e8 fc 04 00 00       	call   8049160 <explode_bomb>
 8048c64:	83 c3 04             	add    $0x4,%ebx
 8048c67:	39 f3                	cmp    %esi,%ebx
 8048c69:	75 ea                	jne    8048c55 <phase_4+0x3d>
 8048c6b:	8b 44 24 1c          	mov    0x1c(%esp),%eax
 8048c6f:	65 33 05 14 00 00 00 	xor    %gs:0x14,%eax
 8048c76:	74 05                	je     8048c7d <phase_4+0x65>
 8048c78:	e8 13 fb ff ff       	call   8048790 <__stack_chk_fail@plt>
 8048c7d:	83 c4 24             	add    $0x24,%esp
 8048c80:	5b                   	pop    %ebx
 8048c81:	5e                   	pop    %esi
 8048c82:	c3                   	ret    

08048c83 <func5>:
 8048c83:	56                   	push   %esi
 8048c84:	53                   	push   %ebx
 8048c85:	83 ec 04             	sub    $0x4,%esp
 8048c88:	8b 54 24 10          	mov    0x10(%esp),%edx
 8048c8c:	8b 74 24 14          	mov    0x14(%esp),%esi
 8048c90:	8b 4c 24 18          	mov    0x18(%esp),%ecx
 8048c94:	89 c8                	mov    %ecx,%eax
 8048c96:	29 f0                	sub    %esi,%eax
 8048c98:	89 c3                	mov    %eax,%ebx
 8048c9a:	c1 eb 1f             	shr    $0x1f,%ebx
 8048c9d:	01 d8                	add    %ebx,%eax
 8048c9f:	d1 f8                	sar    %eax
 8048ca1:	8d 1c 30             	lea    (%eax,%esi,1),%ebx
 8048ca4:	39 d3                	cmp    %edx,%ebx
 8048ca6:	7e 15                	jle    8048cbd <func5+0x3a>
 8048ca8:	83 ec 04             	sub    $0x4,%esp
 8048cab:	8d 43 ff             	lea    -0x1(%ebx),%eax
 8048cae:	50                   	push   %eax
 8048caf:	56                   	push   %esi
 8048cb0:	52                   	push   %edx
 8048cb1:	e8 cd ff ff ff       	call   8048c83 <func5>
 8048cb6:	83 c4 10             	add    $0x10,%esp
 8048cb9:	01 d8                	add    %ebx,%eax
 8048cbb:	eb 19                	jmp    8048cd6 <func5+0x53>
 8048cbd:	89 d8                	mov    %ebx,%eax
 8048cbf:	39 d3                	cmp    %edx,%ebx
 8048cc1:	7d 13                	jge    8048cd6 <func5+0x53>
 8048cc3:	83 ec 04             	sub    $0x4,%esp
 8048cc6:	51                   	push   %ecx
 8048cc7:	8d 43 01             	lea    0x1(%ebx),%eax
 8048cca:	50                   	push   %eax
 8048ccb:	52                   	push   %edx
 8048ccc:	e8 b2 ff ff ff       	call   8048c83 <func5>
 8048cd1:	83 c4 10             	add    $0x10,%esp
 8048cd4:	01 d8                	add    %ebx,%eax
 8048cd6:	83 c4 04             	add    $0x4,%esp
 8048cd9:	5b                   	pop    %ebx
 8048cda:	5e                   	pop    %esi
 8048cdb:	c3                   	ret    

08048cdc <phase_5>:
 8048cdc:	83 ec 1c             	sub    $0x1c,%esp
 8048cdf:	65 a1 14 00 00 00    	mov    %gs:0x14,%eax
 8048ce5:	89 44 24 0c          	mov    %eax,0xc(%esp)
 8048ce9:	31 c0                	xor    %eax,%eax
 8048ceb:	8d 44 24 08          	lea    0x8(%esp),%eax
 8048cef:	50                   	push   %eax
 8048cf0:	8d 44 24 08          	lea    0x8(%esp),%eax
 8048cf4:	50                   	push   %eax
 8048cf5:	68 9f a2 04 08       	push   $0x804a29f
 8048cfa:	ff 74 24 2c          	pushl  0x2c(%esp)
 8048cfe:	e8 0d fb ff ff       	call   8048810 <__isoc99_sscanf@plt>
 8048d03:	83 c4 10             	add    $0x10,%esp
 8048d06:	83 f8 02             	cmp    $0x2,%eax
 8048d09:	75 07                	jne    8048d12 <phase_5+0x36>
 8048d0b:	83 7c 24 04 0e       	cmpl   $0xe,0x4(%esp)
 8048d10:	76 05                	jbe    8048d17 <phase_5+0x3b>
 8048d12:	e8 49 04 00 00       	call   8049160 <explode_bomb>
 8048d17:	83 ec 04             	sub    $0x4,%esp
 8048d1a:	6a 0e                	push   $0xe
 8048d1c:	6a 00                	push   $0x0
 8048d1e:	ff 74 24 10          	pushl  0x10(%esp)
 8048d22:	e8 5c ff ff ff       	call   8048c83 <func5>
 8048d27:	83 c4 10             	add    $0x10,%esp
 8048d2a:	83 f8 1b             	cmp    $0x1b,%eax
 8048d2d:	75 07                	jne    8048d36 <phase_5+0x5a>
 8048d2f:	83 7c 24 08 1b       	cmpl   $0x1b,0x8(%esp)
 8048d34:	74 05                	je     8048d3b <phase_5+0x5f>
 8048d36:	e8 25 04 00 00       	call   8049160 <explode_bomb>
 8048d3b:	8b 44 24 0c          	mov    0xc(%esp),%eax
 8048d3f:	65 33 05 14 00 00 00 	xor    %gs:0x14,%eax
 8048d46:	74 05                	je     8048d4d <phase_5+0x71>
 8048d48:	e8 43 fa ff ff       	call   8048790 <__stack_chk_fail@plt>
 8048d4d:	83 c4 1c             	add    $0x1c,%esp
 8048d50:	c3                   	ret    

08048d51 <phase_6>:
 8048d51:	56                   	push   %esi
 8048d52:	53                   	push   %ebx
 8048d53:	83 ec 4c             	sub    $0x4c,%esp
 8048d56:	65 a1 14 00 00 00    	mov    %gs:0x14,%eax
 8048d5c:	89 44 24 44          	mov    %eax,0x44(%esp)
 8048d60:	31 c0                	xor    %eax,%eax
 8048d62:	8d 44 24 14          	lea    0x14(%esp),%eax
 8048d66:	50                   	push   %eax
 8048d67:	ff 74 24 5c          	pushl  0x5c(%esp)
 8048d6b:	e8 2d 04 00 00       	call   804919d <read_six_numbers>
 8048d70:	83 c4 10             	add    $0x10,%esp
 8048d73:	be 00 00 00 00       	mov    $0x0,%esi
 8048d78:	8b 44 b4 0c          	mov    0xc(%esp,%esi,4),%eax
 8048d7c:	83 e8 01             	sub    $0x1,%eax
 8048d7f:	83 f8 05             	cmp    $0x5,%eax
 8048d82:	76 05                	jbe    8048d89 <phase_6+0x38>
 8048d84:	e8 d7 03 00 00       	call   8049160 <explode_bomb>
 8048d89:	83 c6 01             	add    $0x1,%esi
 8048d8c:	83 fe 06             	cmp    $0x6,%esi
 8048d8f:	74 33                	je     8048dc4 <phase_6+0x73>
 8048d91:	89 f3                	mov    %esi,%ebx
 8048d93:	8b 44 9c 0c          	mov    0xc(%esp,%ebx,4),%eax
 8048d97:	39 44 b4 08          	cmp    %eax,0x8(%esp,%esi,4)
 8048d9b:	75 05                	jne    8048da2 <phase_6+0x51>
 8048d9d:	e8 be 03 00 00       	call   8049160 <explode_bomb>
 8048da2:	83 c3 01             	add    $0x1,%ebx
 8048da5:	83 fb 05             	cmp    $0x5,%ebx
 8048da8:	7e e9                	jle    8048d93 <phase_6+0x42>
 8048daa:	eb cc                	jmp    8048d78 <phase_6+0x27>
 8048dac:	8b 52 08             	mov    0x8(%edx),%edx
 8048daf:	83 c0 01             	add    $0x1,%eax
 8048db2:	39 c8                	cmp    %ecx,%eax
 8048db4:	75 f6                	jne    8048dac <phase_6+0x5b>
 8048db6:	89 54 b4 24          	mov    %edx,0x24(%esp,%esi,4)
 8048dba:	83 c3 01             	add    $0x1,%ebx
 8048dbd:	83 fb 06             	cmp    $0x6,%ebx
 8048dc0:	75 07                	jne    8048dc9 <phase_6+0x78>
 8048dc2:	eb 1c                	jmp    8048de0 <phase_6+0x8f>
 8048dc4:	bb 00 00 00 00       	mov    $0x0,%ebx
 8048dc9:	89 de                	mov    %ebx,%esi
 8048dcb:	8b 4c 9c 0c          	mov    0xc(%esp,%ebx,4),%ecx
 8048dcf:	b8 01 00 00 00       	mov    $0x1,%eax
 8048dd4:	ba 3c c1 04 08       	mov    $0x804c13c,%edx
 8048dd9:	83 f9 01             	cmp    $0x1,%ecx
 8048ddc:	7f ce                	jg     8048dac <phase_6+0x5b>
 8048dde:	eb d6                	jmp    8048db6 <phase_6+0x65>
 8048de0:	8b 5c 24 24          	mov    0x24(%esp),%ebx
 8048de4:	8d 44 24 24          	lea    0x24(%esp),%eax
 8048de8:	8d 74 24 38          	lea    0x38(%esp),%esi
 8048dec:	89 d9                	mov    %ebx,%ecx
 8048dee:	8b 50 04             	mov    0x4(%eax),%edx
 8048df1:	89 51 08             	mov    %edx,0x8(%ecx)
 8048df4:	83 c0 04             	add    $0x4,%eax
 8048df7:	89 d1                	mov    %edx,%ecx
 8048df9:	39 f0                	cmp    %esi,%eax
 8048dfb:	75 f1                	jne    8048dee <phase_6+0x9d>
 8048dfd:	c7 42 08 00 00 00 00 	movl   $0x0,0x8(%edx)
 8048e04:	be 05 00 00 00       	mov    $0x5,%esi
 8048e09:	8b 43 08             	mov    0x8(%ebx),%eax
 8048e0c:	8b 00                	mov    (%eax),%eax
 8048e0e:	39 03                	cmp    %eax,(%ebx)
 8048e10:	7d 05                	jge    8048e17 <phase_6+0xc6>
 8048e12:	e8 49 03 00 00       	call   8049160 <explode_bomb>
 8048e17:	8b 5b 08             	mov    0x8(%ebx),%ebx
 8048e1a:	83 ee 01             	sub    $0x1,%esi
 8048e1d:	75 ea                	jne    8048e09 <phase_6+0xb8>
 8048e1f:	8b 44 24 3c          	mov    0x3c(%esp),%eax
 8048e23:	65 33 05 14 00 00 00 	xor    %gs:0x14,%eax
 8048e2a:	74 05                	je     8048e31 <phase_6+0xe0>
 8048e2c:	e8 5f f9 ff ff       	call   8048790 <__stack_chk_fail@plt>
 8048e31:	83 c4 44             	add    $0x44,%esp
 8048e34:	5b                   	pop    %ebx
 8048e35:	5e                   	pop    %esi
 8048e36:	c3                   	ret    

08048e37 <fun7>:
 8048e37:	53                   	push   %ebx
 8048e38:	83 ec 08             	sub    $0x8,%esp
 8048e3b:	8b 54 24 10          	mov    0x10(%esp),%edx
 8048e3f:	8b 4c 24 14          	mov    0x14(%esp),%ecx
 8048e43:	85 d2                	test   %edx,%edx
 8048e45:	74 37                	je     8048e7e <fun7+0x47>
 8048e47:	8b 1a                	mov    (%edx),%ebx
 8048e49:	39 cb                	cmp    %ecx,%ebx
 8048e4b:	7e 13                	jle    8048e60 <fun7+0x29>
 8048e4d:	83 ec 08             	sub    $0x8,%esp
 8048e50:	51                   	push   %ecx
 8048e51:	ff 72 04             	pushl  0x4(%edx)
 8048e54:	e8 de ff ff ff       	call   8048e37 <fun7>
 8048e59:	83 c4 10             	add    $0x10,%esp
 8048e5c:	01 c0                	add    %eax,%eax
 8048e5e:	eb 23                	jmp    8048e83 <fun7+0x4c>
 8048e60:	b8 00 00 00 00       	mov    $0x0,%eax
 8048e65:	39 cb                	cmp    %ecx,%ebx
 8048e67:	74 1a                	je     8048e83 <fun7+0x4c>
 8048e69:	83 ec 08             	sub    $0x8,%esp
 8048e6c:	51                   	push   %ecx
 8048e6d:	ff 72 08             	pushl  0x8(%edx)
 8048e70:	e8 c2 ff ff ff       	call   8048e37 <fun7>
 8048e75:	83 c4 10             	add    $0x10,%esp
 8048e78:	8d 44 00 01          	lea    0x1(%eax,%eax,1),%eax
 8048e7c:	eb 05                	jmp    8048e83 <fun7+0x4c>
 8048e7e:	b8 ff ff ff ff       	mov    $0xffffffff,%eax
 8048e83:	83 c4 08             	add    $0x8,%esp
 8048e86:	5b                   	pop    %ebx
 8048e87:	c3                   	ret    

08048e88 <secret_phase>:
 8048e88:	53                   	push   %ebx
 8048e89:	83 ec 08             	sub    $0x8,%esp
 8048e8c:	e8 47 03 00 00       	call   80491d8 <read_line>
 8048e91:	83 ec 04             	sub    $0x4,%esp
 8048e94:	6a 0a                	push   $0xa
 8048e96:	6a 00                	push   $0x0
 8048e98:	50                   	push   %eax
 8048e99:	e8 e2 f9 ff ff       	call   8048880 <strtol@plt>
 8048e9e:	89 c3                	mov    %eax,%ebx
 8048ea0:	8d 40 ff             	lea    -0x1(%eax),%eax
 8048ea3:	83 c4 10             	add    $0x10,%esp
 8048ea6:	3d e8 03 00 00       	cmp    $0x3e8,%eax
 8048eab:	76 05                	jbe    8048eb2 <secret_phase+0x2a>
 8048ead:	e8 ae 02 00 00       	call   8049160 <explode_bomb>
 8048eb2:	83 ec 08             	sub    $0x8,%esp
 8048eb5:	53                   	push   %ebx
 8048eb6:	68 88 c0 04 08       	push   $0x804c088
 8048ebb:	e8 77 ff ff ff       	call   8048e37 <fun7>
 8048ec0:	83 c4 10             	add    $0x10,%esp
 8048ec3:	83 f8 03             	cmp    $0x3,%eax
 8048ec6:	74 05                	je     8048ecd <secret_phase+0x45>
 8048ec8:	e8 93 02 00 00       	call   8049160 <explode_bomb>
 8048ecd:	83 ec 0c             	sub    $0xc,%esp
 8048ed0:	68 c0 a0 04 08       	push   $0x804a0c0
 8048ed5:	e8 e6 f8 ff ff       	call   80487c0 <puts@plt>
 8048eda:	e8 f2 03 00 00       	call   80492d1 <phase_defused>
 8048edf:	83 c4 18             	add    $0x18,%esp
 8048ee2:	5b                   	pop    %ebx
 8048ee3:	c3                   	ret    

08048ee4 <sig_handler>:
 8048ee4:	83 ec 18             	sub    $0x18,%esp
 8048ee7:	68 e8 a0 04 08       	push   $0x804a0e8
 8048eec:	e8 cf f8 ff ff       	call   80487c0 <puts@plt>
 8048ef1:	c7 04 24 03 00 00 00 	movl   $0x3,(%esp)
 8048ef8:	e8 73 f8 ff ff       	call   8048770 <sleep@plt>
 8048efd:	83 c4 08             	add    $0x8,%esp
 8048f00:	68 35 a2 04 08       	push   $0x804a235
 8048f05:	6a 01                	push   $0x1
 8048f07:	e8 34 f9 ff ff       	call   8048840 <__printf_chk@plt>
 8048f0c:	83 c4 04             	add    $0x4,%esp
 8048f0f:	ff 35 e4 c3 04 08    	pushl  0x804c3e4
 8048f15:	e8 26 f8 ff ff       	call   8048740 <fflush@plt>
 8048f1a:	c7 04 24 01 00 00 00 	movl   $0x1,(%esp)
 8048f21:	e8 4a f8 ff ff       	call   8048770 <sleep@plt>
 8048f26:	c7 04 24 3d a2 04 08 	movl   $0x804a23d,(%esp)
 8048f2d:	e8 8e f8 ff ff       	call   80487c0 <puts@plt>
 8048f32:	c7 04 24 10 00 00 00 	movl   $0x10,(%esp)
 8048f39:	e8 a2 f8 ff ff       	call   80487e0 <exit@plt>

08048f3e <invalid_phase>:
 8048f3e:	83 ec 10             	sub    $0x10,%esp
 8048f41:	ff 74 24 14          	pushl  0x14(%esp)
 8048f45:	68 45 a2 04 08       	push   $0x804a245
 8048f4a:	6a 01                	push   $0x1
 8048f4c:	e8 ef f8 ff ff       	call   8048840 <__printf_chk@plt>
 8048f51:	c7 04 24 08 00 00 00 	movl   $0x8,(%esp)
 8048f58:	e8 83 f8 ff ff       	call   80487e0 <exit@plt>

08048f5d <string_length>:
 8048f5d:	8b 54 24 04          	mov    0x4(%esp),%edx
 8048f61:	80 3a 00             	cmpb   $0x0,(%edx)
 8048f64:	74 10                	je     8048f76 <string_length+0x19>
 8048f66:	b8 00 00 00 00       	mov    $0x0,%eax
 8048f6b:	83 c0 01             	add    $0x1,%eax
 8048f6e:	80 3c 02 00          	cmpb   $0x0,(%edx,%eax,1)
 8048f72:	75 f7                	jne    8048f6b <string_length+0xe>
 8048f74:	f3 c3                	repz ret 
 8048f76:	b8 00 00 00 00       	mov    $0x0,%eax
 8048f7b:	c3                   	ret    

08048f7c <strings_not_equal>:
 8048f7c:	57                   	push   %edi
 8048f7d:	56                   	push   %esi
 8048f7e:	53                   	push   %ebx
 8048f7f:	8b 5c 24 10          	mov    0x10(%esp),%ebx
 8048f83:	8b 74 24 14          	mov    0x14(%esp),%esi
 8048f87:	53                   	push   %ebx
 8048f88:	e8 d0 ff ff ff       	call   8048f5d <string_length>
 8048f8d:	89 c7                	mov    %eax,%edi
 8048f8f:	89 34 24             	mov    %esi,(%esp)
 8048f92:	e8 c6 ff ff ff       	call   8048f5d <string_length>
 8048f97:	83 c4 04             	add    $0x4,%esp
 8048f9a:	ba 01 00 00 00       	mov    $0x1,%edx
 8048f9f:	39 c7                	cmp    %eax,%edi
 8048fa1:	75 38                	jne    8048fdb <strings_not_equal+0x5f>
 8048fa3:	0f b6 03             	movzbl (%ebx),%eax
 8048fa6:	84 c0                	test   %al,%al
 8048fa8:	74 1e                	je     8048fc8 <strings_not_equal+0x4c>
 8048faa:	3a 06                	cmp    (%esi),%al
 8048fac:	74 06                	je     8048fb4 <strings_not_equal+0x38>
 8048fae:	eb 1f                	jmp    8048fcf <strings_not_equal+0x53>
 8048fb0:	3a 06                	cmp    (%esi),%al
 8048fb2:	75 22                	jne    8048fd6 <strings_not_equal+0x5a>
 8048fb4:	83 c3 01             	add    $0x1,%ebx
 8048fb7:	83 c6 01             	add    $0x1,%esi
 8048fba:	0f b6 03             	movzbl (%ebx),%eax
 8048fbd:	84 c0                	test   %al,%al
 8048fbf:	75 ef                	jne    8048fb0 <strings_not_equal+0x34>
 8048fc1:	ba 00 00 00 00       	mov    $0x0,%edx
 8048fc6:	eb 13                	jmp    8048fdb <strings_not_equal+0x5f>
 8048fc8:	ba 00 00 00 00       	mov    $0x0,%edx
 8048fcd:	eb 0c                	jmp    8048fdb <strings_not_equal+0x5f>
 8048fcf:	ba 01 00 00 00       	mov    $0x1,%edx
 8048fd4:	eb 05                	jmp    8048fdb <strings_not_equal+0x5f>
 8048fd6:	ba 01 00 00 00       	mov    $0x1,%edx
 8048fdb:	89 d0                	mov    %edx,%eax
 8048fdd:	5b                   	pop    %ebx
 8048fde:	5e                   	pop    %esi
 8048fdf:	5f                   	pop    %edi
 8048fe0:	c3                   	ret    

08048fe1 <initialize_bomb>:
 8048fe1:	83 ec 14             	sub    $0x14,%esp
 8048fe4:	68 e4 8e 04 08       	push   $0x8048ee4
 8048fe9:	6a 02                	push   $0x2
 8048feb:	e8 70 f7 ff ff       	call   8048760 <signal@plt>
 8048ff0:	83 c4 1c             	add    $0x1c,%esp
 8048ff3:	c3                   	ret    

08048ff4 <initialize_bomb_solve>:
 8048ff4:	f3 c3                	repz ret 

08048ff6 <blank_line>:
 8048ff6:	56                   	push   %esi
 8048ff7:	53                   	push   %ebx
 8048ff8:	83 ec 04             	sub    $0x4,%esp
 8048ffb:	8b 74 24 10          	mov    0x10(%esp),%esi
 8048fff:	eb 14                	jmp    8049015 <blank_line+0x1f>
 8049001:	e8 aa f8 ff ff       	call   80488b0 <__ctype_b_loc@plt>
 8049006:	83 c6 01             	add    $0x1,%esi
 8049009:	0f be db             	movsbl %bl,%ebx
 804900c:	8b 00                	mov    (%eax),%eax
 804900e:	f6 44 58 01 20       	testb  $0x20,0x1(%eax,%ebx,2)
 8049013:	74 0e                	je     8049023 <blank_line+0x2d>
 8049015:	0f b6 1e             	movzbl (%esi),%ebx
 8049018:	84 db                	test   %bl,%bl
 804901a:	75 e5                	jne    8049001 <blank_line+0xb>
 804901c:	b8 01 00 00 00       	mov    $0x1,%eax
 8049021:	eb 05                	jmp    8049028 <blank_line+0x32>
 8049023:	b8 00 00 00 00       	mov    $0x0,%eax
 8049028:	83 c4 04             	add    $0x4,%esp
 804902b:	5b                   	pop    %ebx
 804902c:	5e                   	pop    %esi
 804902d:	c3                   	ret    

0804902e <skip>:
 804902e:	53                   	push   %ebx
 804902f:	83 ec 08             	sub    $0x8,%esp
 8049032:	83 ec 04             	sub    $0x4,%esp
 8049035:	ff 35 f0 c3 04 08    	pushl  0x804c3f0
 804903b:	6a 50                	push   $0x50
 804903d:	a1 ec c3 04 08       	mov    0x804c3ec,%eax
 8049042:	8d 04 80             	lea    (%eax,%eax,4),%eax
 8049045:	c1 e0 04             	shl    $0x4,%eax
 8049048:	05 00 c4 04 08       	add    $0x804c400,%eax
 804904d:	50                   	push   %eax
 804904e:	e8 fd f6 ff ff       	call   8048750 <fgets@plt>
 8049053:	89 c3                	mov    %eax,%ebx
 8049055:	83 c4 10             	add    $0x10,%esp
 8049058:	85 c0                	test   %eax,%eax
 804905a:	74 10                	je     804906c <skip+0x3e>
 804905c:	83 ec 0c             	sub    $0xc,%esp
 804905f:	50                   	push   %eax
 8049060:	e8 91 ff ff ff       	call   8048ff6 <blank_line>
 8049065:	83 c4 10             	add    $0x10,%esp
 8049068:	85 c0                	test   %eax,%eax
 804906a:	75 c6                	jne    8049032 <skip+0x4>
 804906c:	89 d8                	mov    %ebx,%eax
 804906e:	83 c4 08             	add    $0x8,%esp
 8049071:	5b                   	pop    %ebx
 8049072:	c3                   	ret    

08049073 <send_msg>:
 8049073:	57                   	push   %edi
 8049074:	53                   	push   %ebx
 8049075:	81 ec 14 40 00 00    	sub    $0x4014,%esp
 804907b:	65 a1 14 00 00 00    	mov    %gs:0x14,%eax
 8049081:	89 84 24 0c 40 00 00 	mov    %eax,0x400c(%esp)
 8049088:	31 c0                	xor    %eax,%eax
 804908a:	8b 1d ec c3 04 08    	mov    0x804c3ec,%ebx
 8049090:	8d 54 9b fb          	lea    -0x5(%ebx,%ebx,4),%edx
 8049094:	c1 e2 04             	shl    $0x4,%edx
 8049097:	81 c2 00 c4 04 08    	add    $0x804c400,%edx
 804909d:	b9 ff ff ff ff       	mov    $0xffffffff,%ecx
 80490a2:	89 d7                	mov    %edx,%edi
 80490a4:	f2 ae                	repnz scas %es:(%edi),%al
 80490a6:	f7 d1                	not    %ecx
 80490a8:	83 c1 63             	add    $0x63,%ecx
 80490ab:	81 f9 00 20 00 00    	cmp    $0x2000,%ecx
 80490b1:	76 1b                	jbe    80490ce <send_msg+0x5b>
 80490b3:	83 ec 08             	sub    $0x8,%esp
 80490b6:	68 20 a1 04 08       	push   $0x804a120
 80490bb:	6a 01                	push   $0x1
 80490bd:	e8 7e f7 ff ff       	call   8048840 <__printf_chk@plt>
 80490c2:	c7 04 24 08 00 00 00 	movl   $0x8,(%esp)
 80490c9:	e8 12 f7 ff ff       	call   80487e0 <exit@plt>
 80490ce:	83 bc 24 20 40 00 00 	cmpl   $0x0,0x4020(%esp)
 80490d5:	00 
 80490d6:	b9 5e a2 04 08       	mov    $0x804a25e,%ecx
 80490db:	b8 56 a2 04 08       	mov    $0x804a256,%eax
 80490e0:	0f 44 c1             	cmove  %ecx,%eax
 80490e3:	52                   	push   %edx
 80490e4:	53                   	push   %ebx
 80490e5:	50                   	push   %eax
 80490e6:	ff 35 a4 c1 04 08    	pushl  0x804c1a4
 80490ec:	68 67 a2 04 08       	push   $0x804a267
 80490f1:	68 00 20 00 00       	push   $0x2000
 80490f6:	6a 01                	push   $0x1
 80490f8:	8d 5c 24 28          	lea    0x28(%esp),%ebx
 80490fc:	53                   	push   %ebx
 80490fd:	e8 be f7 ff ff       	call   80488c0 <__sprintf_chk@plt>
 8049102:	83 c4 14             	add    $0x14,%esp
 8049105:	8d 84 24 18 20 00 00 	lea    0x2018(%esp),%eax
 804910c:	50                   	push   %eax
 804910d:	6a 00                	push   $0x0
 804910f:	53                   	push   %ebx
 8049110:	68 84 c1 04 08       	push   $0x804c184
 8049115:	68 9c c1 04 08       	push   $0x804c19c
 804911a:	e8 43 0d 00 00       	call   8049e62 <driver_post>
 804911f:	83 c4 20             	add    $0x20,%esp
 8049122:	85 c0                	test   %eax,%eax
 8049124:	79 1c                	jns    8049142 <send_msg+0xcf>
 8049126:	83 ec 0c             	sub    $0xc,%esp
 8049129:	8d 84 24 18 20 00 00 	lea    0x2018(%esp),%eax
 8049130:	50                   	push   %eax
 8049131:	e8 8a f6 ff ff       	call   80487c0 <puts@plt>
 8049136:	c7 04 24 00 00 00 00 	movl   $0x0,(%esp)
 804913d:	e8 9e f6 ff ff       	call   80487e0 <exit@plt>
 8049142:	8b 84 24 0c 40 00 00 	mov    0x400c(%esp),%eax
 8049149:	65 33 05 14 00 00 00 	xor    %gs:0x14,%eax
 8049150:	74 05                	je     8049157 <send_msg+0xe4>
 8049152:	e8 39 f6 ff ff       	call   8048790 <__stack_chk_fail@plt>
 8049157:	81 c4 14 40 00 00    	add    $0x4014,%esp
 804915d:	5b                   	pop    %ebx
 804915e:	5f                   	pop    %edi
 804915f:	c3                   	ret    

08049160 <explode_bomb>:
 8049160:	83 ec 18             	sub    $0x18,%esp
 8049163:	68 73 a2 04 08       	push   $0x804a273
 8049168:	e8 53 f6 ff ff       	call   80487c0 <puts@plt>
 804916d:	c7 04 24 7c a2 04 08 	movl   $0x804a27c,(%esp)
 8049174:	e8 47 f6 ff ff       	call   80487c0 <puts@plt>
 8049179:	c7 04 24 00 00 00 00 	movl   $0x0,(%esp)
 8049180:	e8 ee fe ff ff       	call   8049073 <send_msg>
 8049185:	c7 04 24 44 a1 04 08 	movl   $0x804a144,(%esp)
 804918c:	e8 2f f6 ff ff       	call   80487c0 <puts@plt>
 8049191:	c7 04 24 08 00 00 00 	movl   $0x8,(%esp)
 8049198:	e8 43 f6 ff ff       	call   80487e0 <exit@plt>

0804919d <read_six_numbers>:
 804919d:	83 ec 0c             	sub    $0xc,%esp
 80491a0:	8b 44 24 14          	mov    0x14(%esp),%eax
 80491a4:	8d 50 14             	lea    0x14(%eax),%edx
 80491a7:	52                   	push   %edx
 80491a8:	8d 50 10             	lea    0x10(%eax),%edx
 80491ab:	52                   	push   %edx
 80491ac:	8d 50 0c             	lea    0xc(%eax),%edx
 80491af:	52                   	push   %edx
 80491b0:	8d 50 08             	lea    0x8(%eax),%edx
 80491b3:	52                   	push   %edx
 80491b4:	8d 50 04             	lea    0x4(%eax),%edx
 80491b7:	52                   	push   %edx
 80491b8:	50                   	push   %eax
 80491b9:	68 93 a2 04 08       	push   $0x804a293
 80491be:	ff 74 24 2c          	pushl  0x2c(%esp)
 80491c2:	e8 49 f6 ff ff       	call   8048810 <__isoc99_sscanf@plt>
 80491c7:	83 c4 20             	add    $0x20,%esp
 80491ca:	83 f8 05             	cmp    $0x5,%eax
 80491cd:	7f 05                	jg     80491d4 <read_six_numbers+0x37>
 80491cf:	e8 8c ff ff ff       	call   8049160 <explode_bomb>
 80491d4:	83 c4 0c             	add    $0xc,%esp
 80491d7:	c3                   	ret    

080491d8 <read_line>:
 80491d8:	57                   	push   %edi
 80491d9:	56                   	push   %esi
 80491da:	53                   	push   %ebx
 80491db:	e8 4e fe ff ff       	call   804902e <skip>
 80491e0:	85 c0                	test   %eax,%eax
 80491e2:	75 70                	jne    8049254 <read_line+0x7c>
 80491e4:	a1 e0 c3 04 08       	mov    0x804c3e0,%eax
 80491e9:	39 05 f0 c3 04 08    	cmp    %eax,0x804c3f0
 80491ef:	75 19                	jne    804920a <read_line+0x32>
 80491f1:	83 ec 0c             	sub    $0xc,%esp
 80491f4:	68 a5 a2 04 08       	push   $0x804a2a5
 80491f9:	e8 c2 f5 ff ff       	call   80487c0 <puts@plt>
 80491fe:	c7 04 24 08 00 00 00 	movl   $0x8,(%esp)
 8049205:	e8 d6 f5 ff ff       	call   80487e0 <exit@plt>
 804920a:	83 ec 0c             	sub    $0xc,%esp
 804920d:	68 c3 a2 04 08       	push   $0x804a2c3
 8049212:	e8 99 f5 ff ff       	call   80487b0 <getenv@plt>
 8049217:	83 c4 10             	add    $0x10,%esp
 804921a:	85 c0                	test   %eax,%eax
 804921c:	74 0a                	je     8049228 <read_line+0x50>
 804921e:	83 ec 0c             	sub    $0xc,%esp
 8049221:	6a 00                	push   $0x0
 8049223:	e8 b8 f5 ff ff       	call   80487e0 <exit@plt>
 8049228:	a1 e0 c3 04 08       	mov    0x804c3e0,%eax
 804922d:	a3 f0 c3 04 08       	mov    %eax,0x804c3f0
 8049232:	e8 f7 fd ff ff       	call   804902e <skip>
 8049237:	85 c0                	test   %eax,%eax
 8049239:	75 19                	jne    8049254 <read_line+0x7c>
 804923b:	83 ec 0c             	sub    $0xc,%esp
 804923e:	68 a5 a2 04 08       	push   $0x804a2a5
 8049243:	e8 78 f5 ff ff       	call   80487c0 <puts@plt>
 8049248:	c7 04 24 00 00 00 00 	movl   $0x0,(%esp)
 804924f:	e8 8c f5 ff ff       	call   80487e0 <exit@plt>
 8049254:	8b 15 ec c3 04 08    	mov    0x804c3ec,%edx
 804925a:	8d 1c 92             	lea    (%edx,%edx,4),%ebx
 804925d:	c1 e3 04             	shl    $0x4,%ebx
 8049260:	81 c3 00 c4 04 08    	add    $0x804c400,%ebx
 8049266:	b8 00 00 00 00       	mov    $0x0,%eax
 804926b:	b9 ff ff ff ff       	mov    $0xffffffff,%ecx
 8049270:	89 df                	mov    %ebx,%edi
 8049272:	f2 ae                	repnz scas %es:(%edi),%al
 8049274:	f7 d1                	not    %ecx
 8049276:	83 e9 01             	sub    $0x1,%ecx
 8049279:	83 f9 4e             	cmp    $0x4e,%ecx
 804927c:	7e 36                	jle    80492b4 <read_line+0xdc>
 804927e:	83 ec 0c             	sub    $0xc,%esp
 8049281:	68 ce a2 04 08       	push   $0x804a2ce
 8049286:	e8 35 f5 ff ff       	call   80487c0 <puts@plt>
 804928b:	a1 ec c3 04 08       	mov    0x804c3ec,%eax
 8049290:	8d 50 01             	lea    0x1(%eax),%edx
 8049293:	89 15 ec c3 04 08    	mov    %edx,0x804c3ec
 8049299:	6b c0 50             	imul   $0x50,%eax,%eax
 804929c:	05 00 c4 04 08       	add    $0x804c400,%eax
 80492a1:	be e9 a2 04 08       	mov    $0x804a2e9,%esi
 80492a6:	b9 04 00 00 00       	mov    $0x4,%ecx
 80492ab:	89 c7                	mov    %eax,%edi
 80492ad:	f3 a5                	rep movsl %ds:(%esi),%es:(%edi)
 80492af:	e8 ac fe ff ff       	call   8049160 <explode_bomb>
 80492b4:	8d 04 92             	lea    (%edx,%edx,4),%eax
 80492b7:	c1 e0 04             	shl    $0x4,%eax
 80492ba:	c6 84 01 ff c3 04 08 	movb   $0x0,0x804c3ff(%ecx,%eax,1)
 80492c1:	00 
 80492c2:	83 c2 01             	add    $0x1,%edx
 80492c5:	89 15 ec c3 04 08    	mov    %edx,0x804c3ec
 80492cb:	89 d8                	mov    %ebx,%eax
 80492cd:	5b                   	pop    %ebx
 80492ce:	5e                   	pop    %esi
 80492cf:	5f                   	pop    %edi
 80492d0:	c3                   	ret    

080492d1 <phase_defused>:
 80492d1:	83 ec 78             	sub    $0x78,%esp
 80492d4:	65 a1 14 00 00 00    	mov    %gs:0x14,%eax
 80492da:	89 44 24 68          	mov    %eax,0x68(%esp)
 80492de:	31 c0                	xor    %eax,%eax
 80492e0:	6a 01                	push   $0x1
 80492e2:	e8 8c fd ff ff       	call   8049073 <send_msg>
 80492e7:	83 c4 10             	add    $0x10,%esp
 80492ea:	83 3d ec c3 04 08 06 	cmpl   $0x6,0x804c3ec
 80492f1:	75 7f                	jne    8049372 <phase_defused+0xa1>
 80492f3:	83 ec 0c             	sub    $0xc,%esp
 80492f6:	8d 44 24 18          	lea    0x18(%esp),%eax
 80492fa:	50                   	push   %eax
 80492fb:	8d 44 24 18          	lea    0x18(%esp),%eax
 80492ff:	50                   	push   %eax
 8049300:	8d 44 24 18          	lea    0x18(%esp),%eax
 8049304:	50                   	push   %eax
 8049305:	68 f9 a2 04 08       	push   $0x8034a2f9
 804930a:	68 f0 c4 04 08       	push   $0x804c4f0
 804930f:	e8 fc f4 ff ff       	call   8048810 <__isoc99_sscanf@plt>
 8049314:	83 c4 20             	add    $0x20,%esp
 8049317:	83 f8 03             	cmp    $0x3,%eax
 804931a:	75 3a                	jne    8049356 <phase_defused+0x85>
 804931c:	83 ec 08             	sub    $0x8,%esp
 804931f:	68 02 a3 04 08       	push   $0x804a302
 8049324:	8d 44 24 18          	lea    0x18(%esp),%eax
 8049328:	50                   	push   %eax
 8049329:	e8 4e fc ff ff       	call   8048f7c <strings_not_equal>
 804932e:	83 c4 10             	add    $0x10,%esp
 8049331:	85 c0                	test   %eax,%eax
 8049333:	75 21                	jne    8049356 <phase_defused+0x85>
 8049335:	83 ec 0c             	sub    $0xc,%esp
 8049338:	68 68 a1 04 08       	push   $0x804a168
 804933d:	e8 7e f4 ff ff       	call   80487c0 <puts@plt>
 8049342:	c7 04 24 90 a1 04 08 	movl   $0x804a190,(%esp)
 8049349:	e8 72 f4 ff ff       	call   80487c0 <puts@plt>
 804934e:	e8 35 fb ff ff       	call   8048e88 <secret_phase>
 8049353:	83 c4 10             	add    $0x10,%esp
 8049356:	83 ec 0c             	sub    $0xc,%esp
 8049359:	68 c8 a1 04 08       	push   $0x804a1c8
 804935e:	e8 5d f4 ff ff       	call   80487c0 <puts@plt>
 8049363:	c7 04 24 f4 a1 04 08 	movl   $0x804a1f4,(%esp)
 804936a:	e8 51 f4 ff ff       	call   80487c0 <puts@plt>
 804936f:	83 c4 10             	add    $0x10,%esp
 8049376:	65 33 05 14 00 00 00 	xor    %gs:0x14,%eax
 804937d:	74 05                	je     8049384 <phase_defused+0xb3>
 804937f:	e8 0c f4 ff ff       	call   8048790 <__stack_chk_fail@plt>
 8049384:	83 c4 6c             	add    $0x6c,%esp
 8049387:	c3                   	ret    

08049388 <sigalrm_handler>:
 8049388:	83 ec 0c             	sub    $0xc,%esp
 804938b:	6a 00                	push   $0x0
 804938d:	68 18 a3 04 08       	push   $0x804a318
 8049392:	6a 01                	push   $0x1
 8049394:	ff 35 c0 c3 04 08    	pushl  0x804c3c0
 804939a:	e8 c1 f4 ff ff       	call   8048860 <__fprintf_chk@plt>
 804939f:	c7 04 24 01 00 00 00 	movl   $0x1,(%esp)
 80493a6:	e8 35 f4 ff ff       	call   80487e0 <exit@plt>

080493ab <rio_readlineb>:
 80493ab:	55                   	push   %ebp
 80493ac:	57                   	push   %edi
 80493ad:	56                   	push   %esi
 80493ae:	53                   	push   %ebx
 80493af:	83 ec 2c             	sub    $0x2c,%esp
 80493b2:	89 d7                	mov    %edx,%edi
 80493b4:	89 4c 24 0c          	mov    %ecx,0xc(%esp)
 80493b8:	65 8b 15 14 00 00 00 	mov    %gs:0x14,%edx
 80493bf:	89 54 24 1c          	mov    %edx,0x1c(%esp)
 80493c3:	31 d2                	xor    %edx,%edx
 80493c5:	83 f9 01             	cmp    $0x1,%ecx
 80493c8:	76 79                	jbe    8049443 <rio_readlineb+0x98>
 80493ca:	89 c3                	mov    %eax,%ebx
 80493cc:	89 4c 24 08          	mov    %ecx,0x8(%esp)
 80493d0:	bd 01 00 00 00       	mov    $0x1,%ebp
 80493d5:	8d 73 0c             	lea    0xc(%ebx),%esi
 80493d8:	eb 2d                	jmp    8049407 <rio_readlineb+0x5c>
 80493da:	83 ec 04             	sub    $0x4,%esp
 80493dd:	68 00 20 00 00       	push   $0x2000
 80493e2:	56                   	push   %esi
 80493e3:	ff 33                	pushl  (%ebx)
 80493e5:	e8 46 f3 ff ff       	call   8048730 <read@plt>
 80493ea:	89 43 04             	mov    %eax,0x4(%ebx)
 80493ed:	83 c4 10             	add    $0x10,%esp
 80493f0:	85 c0                	test   %eax,%eax
 80493f2:	79 0c                	jns    8049400 <rio_readlineb+0x55>
 80493f4:	e8 37 f4 ff ff       	call   8048830 <__errno_location@plt>
 80493f9:	83 38 04             	cmpl   $0x4,(%eax)
 80493fc:	74 09                	je     8049407 <rio_readlineb+0x5c>
 80493fe:	eb 62                	jmp    8049462 <rio_readlineb+0xb7>
 8049400:	85 c0                	test   %eax,%eax
 8049402:	74 63                	je     8049467 <rio_readlineb+0xbc>
 8049404:	89 73 08             	mov    %esi,0x8(%ebx)
 8049407:	8b 43 04             	mov    0x4(%ebx),%eax
 804940a:	85 c0                	test   %eax,%eax
 804940c:	7e cc                	jle    80493da <rio_readlineb+0x2f>
 804940e:	8b 4b 08             	mov    0x8(%ebx),%ecx
 8049411:	0f b6 11             	movzbl (%ecx),%edx
 8049414:	88 54 24 1b          	mov    %dl,0x1b(%esp)
 8049418:	83 c1 01             	add    $0x1,%ecx
 804941b:	89 4b 08             	mov    %ecx,0x8(%ebx)
 804941e:	83 e8 01             	sub    $0x1,%eax
 8049421:	89 43 04             	mov    %eax,0x4(%ebx)
 8049424:	83 c7 01             	add    $0x1,%edi
 8049427:	88 57 ff             	mov    %dl,-0x1(%edi)
 804942a:	80 fa 0a             	cmp    $0xa,%dl
 804942d:	75 09                	jne    8049438 <rio_readlineb+0x8d>
 804942f:	eb 1d                	jmp    804944e <rio_readlineb+0xa3>
 8049431:	83 fd 01             	cmp    $0x1,%ebp
 8049434:	75 18                	jne    804944e <rio_readlineb+0xa3>
 8049436:	eb 1b                	jmp    8049453 <rio_readlineb+0xa8>
 8049438:	83 c5 01             	add    $0x1,%ebp
 804943b:	3b 6c 24 08          	cmp    0x8(%esp),%ebp
 804943f:	74 09                	je     804944a <rio_readlineb+0x9f>
 8049441:	eb c4                	jmp    8049407 <rio_readlineb+0x5c>
 8049443:	bd 01 00 00 00       	mov    $0x1,%ebp
 8049448:	eb 04                	jmp    804944e <rio_readlineb+0xa3>
 804944a:	8b 6c 24 0c          	mov    0xc(%esp),%ebp
 804944e:	c6 07 00             	movb   $0x0,(%edi)
 8049451:	89 e8                	mov    %ebp,%eax
 8049453:	8b 54 24 1c          	mov    0x1c(%esp),%edx
 8049457:	65 33 15 14 00 00 00 	xor    %gs:0x14,%edx
 804945e:	74 17                	je     8049477 <rio_readlineb+0xcc>
 8049460:	eb 10                	jmp    8049472 <rio_readlineb+0xc7>
 8049462:	b8 ff ff ff ff       	mov    $0xffffffff,%eax
 8049467:	85 c0                	test   %eax,%eax
 8049469:	74 c6                	je     8049431 <rio_readlineb+0x86>
 804946b:	b8 ff ff ff ff       	mov    $0xffffffff,%eax
 8049470:	eb e1                	jmp    8049453 <rio_readlineb+0xa8>
 8049472:	e8 19 f3 ff ff       	call   8048790 <__stack_chk_fail@plt>
 8049477:	83 c4 2c             	add    $0x2c,%esp
 804947a:	5b                   	pop    %ebx
 804947b:	5e                   	pop    %esi
 804947c:	5f                   	pop    %edi
 804947d:	5d                   	pop    %ebp
 804947e:	c3                   	ret    

0804947f <submitr>:
 804947f:	55                   	push   %ebp
 8049480:	57                   	push   %edi
 8049481:	56                   	push   %esi
 8049482:	53                   	push   %ebx
 8049483:	81 ec 60 a0 00 00    	sub    $0xa060,%esp
 8049489:	8b b4 24 74 a0 00 00 	mov    0xa074(%esp),%esi
 8049490:	8b 84 24 7c a0 00 00 	mov    0xa07c(%esp),%eax
 8049497:	89 44 24 0c          	mov    %eax,0xc(%esp)
 804949b:	8b 84 24 80 a0 00 00 	mov    0xa080(%esp),%eax
 80494a2:	89 44 24 10          	mov    %eax,0x10(%esp)
 80494a6:	8b 84 24 84 a0 00 00 	mov    0xa084(%esp),%eax
 80494ad:	89 44 24 1c          	mov    %eax,0x1c(%esp)
 80494b1:	8b 84 24 88 a0 00 00 	mov    0xa088(%esp),%eax
 80494b8:	89 44 24 14          	mov    %eax,0x14(%esp)
 80494bc:	8b 9c 24 8c a0 00 00 	mov    0xa08c(%esp),%ebx
 80494c3:	8b 84 24 90 a0 00 00 	mov    0xa090(%esp),%eax
 80494ca:	89 44 24 18          	mov    %eax,0x18(%esp)
 80494ce:	65 a1 14 00 00 00    	mov    %gs:0x14,%eax
 80494d4:	89 84 24 50 a0 00 00 	mov    %eax,0xa050(%esp)
 80494db:	31 c0                	xor    %eax,%eax
 80494dd:	c7 44 24 30 00 00 00 	movl   $0x0,0x30(%esp)
 80494e4:	00 
 80494e5:	6a 00                	push   $0x0
 80494e7:	6a 01                	push   $0x1
 80494e9:	6a 02                	push   $0x2
 80494eb:	e8 60 f3 ff ff       	call   8048850 <socket@plt>
 80494f0:	89 44 24 14          	mov    %eax,0x14(%esp)
 80494f4:	83 c4 10             	add    $0x10,%esp
 80494f7:	85 c0                	test   %eax,%eax
 80494f9:	79 52                	jns    804954d <submitr+0xce>
 80494fb:	8b 44 24 14          	mov    0x14(%esp),%eax
 80494ff:	c7 00 45 72 72 6f    	movl   $0x6f727245,(%eax)
 8049505:	c7 40 04 72 3a 20 43 	movl   $0x43203a72,0x4(%eax)
 804950c:	c7 40 08 6c 69 65 6e 	movl   $0x6e65696c,0x8(%eax)
 8049513:	c7 40 0c 74 20 75 6e 	movl   $0x6e752074,0xc(%eax)
 804951a:	c7 40 10 61 62 6c 65 	movl   $0x656c6261,0x10(%eax)
 8049521:	c7 40 14 20 74 6f 20 	movl   $0x206f7420,0x14(%eax)
 8049528:	c7 40 18 63 72 65 61 	movl   $0x61657263,0x18(%eax)
 804952f:	c7 40 1c 74 65 20 73 	movl   $0x73206574,0x1c(%eax)
 8049536:	c7 40 20 6f 63 6b 65 	movl   $0x656b636f,0x20(%eax)
 804953d:	66 c7 40 24 74 00    	movw   $0x74,0x24(%eax)
 8049543:	b8 ff ff ff ff       	mov    $0xffffffff,%eax
 8049548:	e9 3f 06 00 00       	jmp    8049b8c <submitr+0x70d>
 804954d:	83 ec 0c             	sub    $0xc,%esp
 8049550:	56                   	push   %esi
 8049551:	e8 1a f3 ff ff       	call   8048870 <gethostbyname@plt>
 8049556:	83 c4 10             	add    $0x10,%esp
 8049559:	85 c0                	test   %eax,%eax
 804955b:	75 73                	jne    80495d0 <submitr+0x151>
 804955d:	8b 44 24 14          	mov    0x14(%esp),%eax
 8049561:	c7 00 45 72 72 6f    	movl   $0x6f727245,(%eax)
 8049567:	c7 40 04 72 3a 20 44 	movl   $0x44203a72,0x4(%eax)
 804956e:	c7 40 08 4e 53 20 69 	movl   $0x6920534e,0x8(%eax)
 8049575:	c7 40 0c 73 20 75 6e 	movl   $0x6e752073,0xc(%eax)
 804957c:	c7 40 10 61 62 6c 65 	movl   $0x656c6261,0x10(%eax)
 8049583:	c7 40 14 20 74 6f 20 	movl   $0x206f7420,0x14(%eax)
 804958a:	c7 40 18 72 65 73 6f 	movl   $0x6f736572,0x18(%eax)
 8049591:	c7 40 1c 6c 76 65 20 	movl   $0x2065766c,0x1c(%eax)
 8049598:	c7 40 20 73 65 72 76 	movl   $0x76726573,0x20(%eax)
 804959f:	c7 40 24 65 72 20 61 	movl   $0x61207265,0x24(%eax)
 80495a6:	c7 40 28 64 64 72 65 	movl   $0x65726464,0x28(%eax)
 80495ad:	66 c7 40 2c 73 73    	movw   $0x7373,0x2c(%eax)
 80495b3:	c6 40 2e 00          	movb   $0x0,0x2e(%eax)
 80495b7:	83 ec 0c             	sub    $0xc,%esp
 80495ba:	ff 74 24 10          	pushl  0x10(%esp)
 80495be:	e8 dd f2 ff ff       	call   80488a0 <close@plt>
 80495c3:	83 c4 10             	add    $0x10,%esp
 80495c6:	b8 ff ff ff ff       	mov    $0xffffffff,%eax
 80495cb:	e9 bc 05 00 00       	jmp    8049b8c <submitr+0x70d>
 80495d0:	8d 74 24 30          	lea    0x30(%esp),%esi
 80495d4:	c7 44 24 30 00 00 00 	movl   $0x0,0x30(%esp)
 80495db:	00 
 80495dc:	c7 44 24 34 00 00 00 	movl   $0x0,0x34(%esp)
 80495e3:	00 
 80495e4:	c7 44 24 38 00 00 00 	movl   $0x0,0x38(%esp)
 80495eb:	00 
 80495ec:	c7 44 24 3c 00 00 00 	movl   $0x0,0x3c(%esp)
 80495f3:	00 
 80495f4:	66 c7 44 24 30 02 00 	movw   $0x2,0x30(%esp)
 80495fb:	6a 0c                	push   $0xc
 80495fd:	ff 70 0c             	pushl  0xc(%eax)
 8049600:	8b 40 10             	mov    0x10(%eax),%eax
 8049603:	ff 30                	pushl  (%eax)
 8049605:	8d 44 24 40          	lea    0x40(%esp),%eax
 8049609:	50                   	push   %eax
 804960a:	e8 c1 f1 ff ff       	call   80487d0 <__memmove_chk@plt>
 804960f:	0f b7 84 24 84 a0 00 	movzwl 0xa084(%esp),%eax
 8049616:	00 
 8049617:	66 c1 c8 08          	ror    $0x8,%ax
 804961b:	66 89 44 24 42       	mov    %ax,0x42(%esp)
 8049620:	83 c4 0c             	add    $0xc,%esp
 8049623:	6a 10                	push   $0x10
 8049625:	56                   	push   %esi
 8049626:	ff 74 24 10          	pushl  0x10(%esp)
 804962a:	e8 61 f2 ff ff       	call   8048890 <connect@plt>
 804962f:	83 c4 10             	add    $0x10,%esp
 8049632:	85 c0                	test   %eax,%eax
 8049634:	79 65                	jns    804969b <submitr+0x21c>
 8049636:	8b 44 24 14          	mov    0x14(%esp),%eax
 804963a:	c7 00 45 72 72 6f    	movl   $0x6f727245,(%eax)
 8049640:	c7 40 04 72 3a 20 55 	movl   $0x55203a72,0x4(%eax)
 8049647:	c7 40 08 6e 61 62 6c 	movl   $0x6c62616e,0x8(%eax)
 804964e:	c7 40 0c 65 20 74 6f 	movl   $0x6f742065,0xc(%eax)
 8049655:	c7 40 10 20 63 6f 6e 	movl   $0x6e6f6320,0x10(%eax)
 804965c:	c7 40 14 6e 65 63 74 	movl   $0x7463656e,0x14(%eax)
 8049663:	c7 40 18 20 74 6f 20 	movl   $0x206f7420,0x18(%eax)
 804966a:	c7 40 1c 74 68 65 20 	movl   $0x20656874,0x1c(%eax)
 8049671:	c7 40 20 73 65 72 76 	movl   $0x76726573,0x20(%eax)
 8049678:	66 c7 40 24 65 72    	movw   $0x7265,0x24(%eax)
 804967e:	c6 40 26 00          	movb   $0x0,0x26(%eax)
 8049682:	83 ec 0c             	sub    $0xc,%esp
 8049685:	ff 74 24 10          	pushl  0x10(%esp)
 8049689:	e8 12 f2 ff ff       	call   80488a0 <close@plt>
 804968e:	83 c4 10             	add    $0x10,%esp
 8049691:	b8 ff ff ff ff       	mov    $0xffffffff,%eax
 8049696:	e9 f1 04 00 00       	jmp    8049b8c <submitr+0x70d>
 804969b:	be ff ff ff ff       	mov    $0xffffffff,%esi
 80496a0:	b8 00 00 00 00       	mov    $0x0,%eax
 80496a5:	89 f1                	mov    %esi,%ecx
 80496a7:	89 df                	mov    %ebx,%edi
 80496a9:	f2 ae                	repnz scas %es:(%edi),%al
 80496ab:	f7 d1                	not    %ecx
 80496ad:	89 cd                	mov    %ecx,%ebp
 80496af:	89 f1                	mov    %esi,%ecx
 80496b1:	8b 7c 24 08          	mov    0x8(%esp),%edi
 80496b5:	f2 ae                	repnz scas %es:(%edi),%al
 80496b7:	89 4c 24 1c          	mov    %ecx,0x1c(%esp)
 80496bb:	89 f1                	mov    %esi,%ecx
 80496bd:	8b 7c 24 0c          	mov    0xc(%esp),%edi
 80496c1:	f2 ae                	repnz scas %es:(%edi),%al
 80496c3:	89 ca                	mov    %ecx,%edx
 80496c5:	f7 d2                	not    %edx
 80496c7:	89 f1                	mov    %esi,%ecx
 80496c9:	8b 7c 24 10          	mov    0x10(%esp),%edi
 80496cd:	f2 ae                	repnz scas %es:(%edi),%al
 80496cf:	2b 54 24 1c          	sub    0x1c(%esp),%edx
 80496d3:	29 ca                	sub    %ecx,%edx
 80496d5:	8d 44 6d fd          	lea    -0x3(%ebp,%ebp,2),%eax
 80496d9:	8d 44 02 7b          	lea    0x7b(%edx,%eax,1),%eax
 80496dd:	3d 00 20 00 00       	cmp    $0x2000,%eax
 80496e2:	76 7e                	jbe    8049762 <submitr+0x2e3>
 80496e4:	8b 44 24 14          	mov    0x14(%esp),%eax
 80496e8:	c7 00 45 72 72 6f    	movl   $0x6f727245,(%eax)
 80496ee:	c7 40 04 72 3a 20 52 	movl   $0x52203a72,0x4(%eax)
 80496f5:	c7 40 08 65 73 75 6c 	movl   $0x6c757365,0x8(%eax)
 80496fc:	c7 40 0c 74 20 73 74 	movl   $0x74732074,0xc(%eax)
 8049703:	c7 40 10 72 69 6e 67 	movl   $0x676e6972,0x10(%eax)
 804970a:	c7 40 14 20 74 6f 6f 	movl   $0x6f6f7420,0x14(%eax)
 8049711:	c7 40 18 20 6c 61 72 	movl   $0x72616c20,0x18(%eax)
 8049718:	c7 40 1c 67 65 2e 20 	movl   $0x202e6567,0x1c(%eax)
 804971f:	c7 40 20 49 6e 63 72 	movl   $0x72636e49,0x20(%eax)
 8049726:	c7 40 24 65 61 73 65 	movl   $0x65736165,0x24(%eax)
 804972d:	c7 40 28 20 53 55 42 	movl   $0x42555320,0x28(%eax)
 8049734:	c7 40 2c 4d 49 54 52 	movl   $0x5254494d,0x2c(%eax)
 804973b:	c7 40 30 5f 4d 41 58 	movl   $0x58414d5f,0x30(%eax)
 8049742:	c7 40 34 42 55 46 00 	movl   $0x465542,0x34(%eax)
 8049749:	83 ec 0c             	sub    $0xc,%esp
 804974c:	ff 74 24 10          	pushl  0x10(%esp)
 8049750:	e8 4b f1 ff ff       	call   80488a0 <close@plt>
 8049755:	83 c4 10             	add    $0x10,%esp
 8049758:	b8 ff ff ff ff       	mov    $0xffffffff,%eax
 804975d:	e9 2a 04 00 00       	jmp    8049b8c <submitr+0x70d>
 8049762:	8d 94 24 4c 40 00 00 	lea    0x404c(%esp),%edx
 8049769:	b9 00 08 00 00       	mov    $0x800,%ecx
 804976e:	b8 00 00 00 00       	mov    $0x0,%eax
 8049773:	89 d7                	mov    %edx,%edi
 8049775:	f3 ab                	rep stos %eax,%es:(%edi)
 8049777:	b9 ff ff ff ff       	mov    $0xffffffff,%ecx
 804977c:	89 df                	mov    %ebx,%edi
 804977e:	f2 ae                	repnz scas %es:(%edi),%al
 8049780:	f7 d1                	not    %ecx
 8049782:	89 ce                	mov    %ecx,%esi
 8049784:	83 ee 01             	sub    $0x1,%esi
 8049787:	0f 84 5c 04 00 00    	je     8049be9 <submitr+0x76a>
 804978d:	89 d5                	mov    %edx,%ebp
 804978f:	bf d9 ff 00 00       	mov    $0xffd9,%edi
 8049794:	0f b6 13             	movzbl (%ebx),%edx
 8049797:	8d 4a d6             	lea    -0x2a(%edx),%ecx
 804979a:	b8 01 00 00 00       	mov    $0x1,%eax
 804979f:	80 f9 0f             	cmp    $0xf,%cl
 80497a2:	77 0a                	ja     80497ae <submitr+0x32f>
 80497a4:	89 f8                	mov    %edi,%eax
 80497a6:	d3 e8                	shr    %cl,%eax
 80497a8:	83 f0 01             	xor    $0x1,%eax
 80497ab:	83 e0 01             	and    $0x1,%eax
 80497ae:	80 fa 5f             	cmp    $0x5f,%dl
 80497b1:	0f 94 c1             	sete   %cl
 80497b4:	38 c1                	cmp    %al,%cl
 80497b6:	73 0c                	jae    80497c4 <submitr+0x345>
 80497b8:	89 d0                	mov    %edx,%eax
 80497ba:	83 e0 df             	and    $0xffffffdf,%eax
 80497bd:	83 e8 41             	sub    $0x41,%eax
 80497c0:	3c 19                	cmp    $0x19,%al
 80497c2:	77 08                	ja     80497cc <submitr+0x34d>
 80497c4:	88 55 00             	mov    %dl,0x0(%ebp)
 80497c7:	8d 6d 01             	lea    0x1(%ebp),%ebp
 80497ca:	eb 62                	jmp    804982e <submitr+0x3af>
 80497cc:	80 fa 20             	cmp    $0x20,%dl
 80497cf:	75 09                	jne    80497da <submitr+0x35b>
 80497d1:	c6 45 00 2b          	movb   $0x2b,0x0(%ebp)
 80497d5:	8d 6d 01             	lea    0x1(%ebp),%ebp
 80497d8:	eb 54                	jmp    804982e <submitr+0x3af>
 80497da:	8d 42 e0             	lea    -0x20(%edx),%eax
 80497dd:	3c 5f                	cmp    $0x5f,%al
 80497df:	76 09                	jbe    80497ea <submitr+0x36b>
 80497e1:	80 fa 09             	cmp    $0x9,%dl
 80497e4:	0f 85 bb 03 00 00    	jne    8049ba5 <submitr+0x726>
 80497ea:	83 ec 0c             	sub    $0xc,%esp
 80497ed:	0f b6 d2             	movzbl %dl,%edx
 80497f0:	52                   	push   %edx
 80497f1:	68 30 a4 04 08       	push   $0x804a430
 80497f6:	6a 08                	push   $0x8
 80497f8:	6a 01                	push   $0x1
 80497fa:	8d 84 24 68 80 00 00 	lea    0x8068(%esp),%eax
 8049801:	50                   	push   %eax
 8049802:	e8 b9 f0 ff ff       	call   80488c0 <__sprintf_chk@plt>
 8049807:	0f b6 84 24 6c 80 00 	movzbl 0x806c(%esp),%eax
 804980e:	00 
 804980f:	88 45 00             	mov    %al,0x0(%ebp)
 8049812:	0f b6 84 24 6d 80 00 	movzbl 0x806d(%esp),%eax
 8049819:	00 
 804981a:	88 45 01             	mov    %al,0x1(%ebp)
 804981d:	0f b6 84 24 6e 80 00 	movzbl 0x806e(%esp),%eax
 8049824:	00 
 8049825:	88 45 02             	mov    %al,0x2(%ebp)
 8049828:	83 c4 20             	add    $0x20,%esp
 804982b:	8d 6d 03             	lea    0x3(%ebp),%ebp
 804982e:	83 c3 01             	add    $0x1,%ebx
 8049831:	83 ee 01             	sub    $0x1,%esi
 8049834:	0f 85 5a ff ff ff    	jne    8049794 <submitr+0x315>
 804983a:	e9 aa 03 00 00       	jmp    8049be9 <submitr+0x76a>
 804983f:	83 ec 04             	sub    $0x4,%esp
 8049842:	53                   	push   %ebx
 8049843:	56                   	push   %esi
 8049844:	55                   	push   %ebp
 8049845:	e8 b6 ef ff ff       	call   8048800 <write@plt>
 804984a:	83 c4 10             	add    $0x10,%esp
 804984d:	85 c0                	test   %eax,%eax
 804984f:	7f 0f                	jg     8049860 <submitr+0x3e1>
 8049851:	e8 da ef ff ff       	call   8048830 <__errno_location@plt>
 8049856:	83 38 04             	cmpl   $0x4,(%eax)
 8049859:	75 0f                	jne    804986a <submitr+0x3eb>
 804985b:	b8 00 00 00 00       	mov    $0x0,%eax
 8049860:	01 c6                	add    %eax,%esi
 8049862:	29 c3                	sub    %eax,%ebx
 8049864:	75 d9                	jne    804983f <submitr+0x3c0>
 8049866:	85 ff                	test   %edi,%edi
 8049868:	79 69                	jns    80498d3 <submitr+0x454>
 804986a:	8b 44 24 14          	mov    0x14(%esp),%eax
 804986e:	c7 00 45 72 72 6f    	movl   $0x6f727245,(%eax)
 8049874:	c7 40 04 72 3a 20 43 	movl   $0x43203a72,0x4(%eax)
 804987b:	c7 40 08 6c 69 65 6e 	movl   $0x6e65696c,0x8(%eax)
 8049882:	c7 40 0c 74 20 75 6e 	movl   $0x6e752074,0xc(%eax)
 8049889:	c7 40 10 61 62 6c 65 	movl   $0x656c6261,0x10(%eax)
 8049890:	c7 40 14 20 74 6f 20 	movl   $0x206f7420,0x14(%eax)
 8049897:	c7 40 18 77 72 69 74 	movl   $0x74697277,0x18(%eax)
 804989e:	c7 40 1c 65 20 74 6f 	movl   $0x6f742065,0x1c(%eax)
 80498a5:	c7 40 20 20 74 68 65 	movl   $0x65687420,0x20(%eax)
 80498ac:	c7 40 24 20 73 65 72 	movl   $0x72657320,0x24(%eax)
 80498b3:	c7 40 28 76 65 72 00 	movl   $0x726576,0x28(%eax)
 80498ba:	83 ec 0c             	sub    $0xc,%esp
 80498bd:	ff 74 24 10          	pushl  0x10(%esp)
 80498c1:	e8 da ef ff ff       	call   80488a0 <close@plt>
 80498c6:	83 c4 10             	add    $0x10,%esp
 80498c9:	b8 ff ff ff ff       	mov    $0xffffffff,%eax
 80498ce:	e9 b9 02 00 00       	jmp    8049b8c <submitr+0x70d>
 80498d3:	8b 44 24 04          	mov    0x4(%esp),%eax
 80498d7:	89 44 24 40          	mov    %eax,0x40(%esp)
 80498db:	c7 44 24 44 00 00 00 	movl   $0x0,0x44(%esp)
 80498e2:	00 
 80498e3:	8d 44 24 4c          	lea    0x4c(%esp),%eax
 80498e7:	89 44 24 48          	mov    %eax,0x48(%esp)
 80498eb:	b9 00 20 00 00       	mov    $0x2000,%ecx
 80498f0:	8d 94 24 4c 20 00 00 	lea    0x204c(%esp),%edx
 80498f7:	8d 44 24 40          	lea    0x40(%esp),%eax
 80498fb:	e8 ab fa ff ff       	call   80493ab <rio_readlineb>
 8049900:	85 c0                	test   %eax,%eax
 8049902:	7f 7d                	jg     8049981 <submitr+0x502>
 8049904:	8b 44 24 14          	mov    0x14(%esp),%eax
 8049908:	c7 00 45 72 72 6f    	movl   $0x6f727245,(%eax)
 804990e:	c7 40 04 72 3a 20 43 	movl   $0x43203a72,0x4(%eax)
 8049915:	c7 40 08 6c 69 65 6e 	movl   $0x6e65696c,0x8(%eax)
 804991c:	c7 40 0c 74 20 75 6e 	movl   $0x6e752074,0xc(%eax)
 8049923:	c7 40 10 61 62 6c 65 	movl   $0x656c6261,0x10(%eax)
 804992a:	c7 40 14 20 74 6f 20 	movl   $0x206f7420,0x14(%eax)
 8049931:	c7 40 18 72 65 61 64 	movl   $0x64616572,0x18(%eax)
 8049938:	c7 40 1c 20 66 69 72 	movl   $0x72696620,0x1c(%eax)
 804993f:	c7 40 20 73 74 20 68 	movl   $0x68207473,0x20(%eax)
 8049946:	c7 40 24 65 61 64 65 	movl   $0x65646165,0x24(%eax)
 804994d:	c7 40 28 72 20 66 72 	movl   $0x72662072,0x28(%eax)
 8049954:	c7 40 2c 6f 6d 20 73 	movl   $0x73206d6f,0x2c(%eax)
 804995b:	c7 40 30 65 72 76 65 	movl   $0x65767265,0x30(%eax)
 8049962:	66 c7 40 34 72 00    	movw   $0x72,0x34(%eax)
 8049968:	83 ec 0c             	sub    $0xc,%esp
 804996b:	ff 74 24 10          	pushl  0x10(%esp)
 804996f:	e8 2c ef ff ff       	call   80488a0 <close@plt>
 8049974:	83 c4 10             	add    $0x10,%esp
 8049977:	b8 ff ff ff ff       	mov    $0xffffffff,%eax
 804997c:	e9 0b 02 00 00       	jmp    8049b8c <submitr+0x70d>
 8049981:	83 ec 0c             	sub    $0xc,%esp
 8049984:	8d 84 24 58 80 00 00 	lea    0x8058(%esp),%eax
 804998b:	50                   	push   %eax
 804998c:	8d 44 24 3c          	lea    0x3c(%esp),%eax
 8049990:	50                   	push   %eax
 8049991:	8d 84 24 60 60 00 00 	lea    0x6060(%esp),%eax
 8049998:	50                   	push   %eax
 8049999:	68 37 a4 04 08       	push   $0x804a437
 804999e:	8d 84 24 68 20 00 00 	lea    0x2068(%esp),%eax
 80499a5:	50                   	push   %eax
 80499a6:	e8 65 ee ff ff       	call   8048810 <__isoc99_sscanf@plt>
 80499ab:	8b 44 24 4c          	mov    0x4c(%esp),%eax
 80499af:	83 c4 20             	add    $0x20,%esp
 80499b2:	3d c8 00 00 00       	cmp    $0xc8,%eax
 80499b7:	0f 84 c4 00 00 00    	je     8049a81 <submitr+0x602>
 80499bd:	83 ec 08             	sub    $0x8,%esp
 80499c0:	8d 94 24 54 80 00 00 	lea    0x8054(%esp),%edx
 80499c7:	52                   	push   %edx
 80499c8:	50                   	push   %eax
 80499c9:	68 3c a3 04 08       	push   $0x804a33c
 80499ce:	6a ff                	push   $0xffffffff
 80499d0:	6a 01                	push   $0x1
 80499d2:	ff 74 24 30          	pushl  0x30(%esp)
 80499d6:	e8 e5 ee ff ff       	call   80488c0 <__sprintf_chk@plt>
 80499db:	83 c4 14             	add    $0x14,%esp
 80499de:	ff 74 24 10          	pushl  0x10(%esp)
 80499e2:	e8 b9 ee ff ff       	call   80488a0 <close@plt>
 80499e7:	83 c4 10             	add    $0x10,%esp
 80499ea:	b8 ff ff ff ff       	mov    $0xffffffff,%eax
 80499ef:	e9 98 01 00 00       	jmp    8049b8c <submitr+0x70d>
 80499f4:	b9 00 20 00 00       	mov    $0x2000,%ecx
 80499f9:	8d 94 24 4c 20 00 00 	lea    0x204c(%esp),%edx
 8049a00:	8d 44 24 40          	lea    0x40(%esp),%eax
 8049a04:	e8 a2 f9 ff ff       	call   80493ab <rio_readlineb>
 8049a09:	85 c0                	test   %eax,%eax
 8049a0b:	7f 74                	jg     8049a81 <submitr+0x602>
 8049a0d:	8b 44 24 14          	mov    0x14(%esp),%eax
 8049a11:	c7 00 45 72 72 6f    	movl   $0x6f727245,(%eax)
 8049a17:	c7 40 04 72 3a 20 43 	movl   $0x43203a72,0x4(%eax)
 8049a1e:	c7 40 08 6c 69 65 6e 	movl   $0x6e65696c,0x8(%eax)
 8049a25:	c7 40 0c 74 20 75 6e 	movl   $0x6e752074,0xc(%eax)
 8049a2c:	c7 40 10 61 62 6c 65 	movl   $0x656c6261,0x10(%eax)
 8049a33:	c7 40 14 20 74 6f 20 	movl   $0x206f7420,0x14(%eax)
 8049a3a:	c7 40 18 72 65 61 64 	movl   $0x64616572,0x18(%eax)
 8049a41:	c7 40 1c 20 68 65 61 	movl   $0x61656820,0x1c(%eax)
 8049a48:	c7 40 20 64 65 72 73 	movl   $0x73726564,0x20(%eax)
 8049a4f:	c7 40 24 20 66 72 6f 	movl   $0x6f726620,0x24(%eax)
 8049a56:	c7 40 28 6d 20 73 65 	movl   $0x6573206d,0x28(%eax)
 8049a5d:	c7 40 2c 72 76 65 72 	movl   $0x72657672,0x2c(%eax)
 8049a64:	c6 40 30 00          	movb   $0x0,0x30(%eax)
 8049a68:	83 ec 0c             	sub    $0xc,%esp
 8049a6b:	ff 74 24 10          	pushl  0x10(%esp)
 8049a6f:	e8 2c ee ff ff       	call   80488a0 <close@plt>
 8049a74:	83 c4 10             	add    $0x10,%esp
 8049a77:	b8 ff ff ff ff       	mov    $0xffffffff,%eax
 8049a7c:	e9 0b 01 00 00       	jmp    8049b8c <submitr+0x70d>
 8049a81:	80 bc 24 4c 20 00 00 	cmpb   $0xd,0x204c(%esp)
 8049a88:	0d 
 8049a89:	0f 85 65 ff ff ff    	jne    80499f4 <submitr+0x575>
 8049a8f:	80 bc 24 4d 20 00 00 	cmpb   $0xa,0x204d(%esp)
 8049a96:	0a 
 8049a97:	0f 85 57 ff ff ff    	jne    80499f4 <submitr+0x575>
 8049a9d:	80 bc 24 4e 20 00 00 	cmpb   $0x0,0x204e(%esp)
 8049aa4:	00 
 8049aa5:	0f 85 49 ff ff ff    	jne    80499f4 <submitr+0x575>
 8049aab:	b9 00 20 00 00       	mov    $0x2000,%ecx
 8049ab0:	8d 94 24 4c 20 00 00 	lea    0x204c(%esp),%edx
 8049ab7:	8d 44 24 40          	lea    0x40(%esp),%eax
 8049abb:	e8 eb f8 ff ff       	call   80493ab <rio_readlineb>
 8049ac0:	85 c0                	test   %eax,%eax
 8049ac2:	7f 7b                	jg     8049b3f <submitr+0x6c0>
 8049ac4:	8b 44 24 14          	mov    0x14(%esp),%eax
 8049ac8:	c7 00 45 72 72 6f    	movl   $0x6f727245,(%eax)
 8049ace:	c7 40 04 72 3a 20 43 	movl   $0x43203a72,0x4(%eax)
 8049ad5:	c7 40 08 6c 69 65 6e 	movl   $0x6e65696c,0x8(%eax)
 8049adc:	c7 40 0c 74 20 75 6e 	movl   $0x6e752074,0xc(%eax)
 8049ae3:	c7 40 10 61 62 6c 65 	movl   $0x656c6261,0x10(%eax)
 8049aea:	c7 40 14 20 74 6f 20 	movl   $0x206f7420,0x14(%eax)
 8049af1:	c7 40 18 72 65 61 64 	movl   $0x64616572,0x18(%eax)
 8049af8:	c7 40 1c 20 73 74 61 	movl   $0x61747320,0x1c(%eax)
 8049aff:	c7 40 20 74 75 73 20 	movl   $0x20737574,0x20(%eax)
 8049b06:	c7 40 24 6d 65 73 73 	movl   $0x7373656d,0x24(%eax)
 8049b0d:	c7 40 28 61 67 65 20 	movl   $0x20656761,0x28(%eax)
 8049b14:	c7 40 2c 66 72 6f 6d 	movl   $0x6d6f7266,0x2c(%eax)
 8049b1b:	c7 40 30 20 73 65 72 	movl   $0x72657320,0x30(%eax)
 8049b22:	c7 40 34 76 65 72 00 	movl   $0x726576,0x34(%eax)
 8049b29:	83 ec 0c             	sub    $0xc,%esp
 8049b2c:	ff 74 24 10          	pushl  0x10(%esp)
 8049b30:	e8 6b ed ff ff       	call   80488a0 <close@plt>
 8049b35:	83 c4 10             	add    $0x10,%esp
 8049b38:	b8 ff ff ff ff       	mov    $0xffffffff,%eax
 8049b3d:	eb 4d                	jmp    8049b8c <submitr+0x70d>
 8049b3f:	83 ec 08             	sub    $0x8,%esp
 8049b42:	8d 84 24 54 20 00 00 	lea    0x2054(%esp),%eax
 8049b49:	50                   	push   %eax
 8049b4a:	8b 7c 24 20          	mov    0x20(%esp),%edi
 8049b4e:	57                   	push   %edi
 8049b4f:	e8 4c ec ff ff       	call   80487a0 <strcpy@plt>
 8049b54:	83 c4 04             	add    $0x4,%esp
 8049b57:	ff 74 24 10          	pushl  0x10(%esp)
 8049b5b:	e8 40 ed ff ff       	call   80488a0 <close@plt>
 8049b60:	0f b6 17             	movzbl (%edi),%edx
 8049b63:	b8 4f 00 00 00       	mov    $0x4f,%eax
 8049b68:	83 c4 10             	add    $0x10,%esp
 8049b6b:	29 d0                	sub    %edx,%eax
 8049b6d:	75 13                	jne    8049b82 <submitr+0x703>
 8049b6f:	0f b6 57 01          	movzbl 0x1(%edi),%edx
 8049b73:	b8 4b 00 00 00       	mov    $0x4b,%eax
 8049b78:	29 d0                	sub    %edx,%eax
 8049b7a:	75 06                	jne    8049b82 <submitr+0x703>
 8049b7c:	0f b6 47 02          	movzbl 0x2(%edi),%eax
 8049b80:	f7 d8                	neg    %eax
 8049b82:	85 c0                	test   %eax,%eax
 8049b84:	0f 95 c0             	setne  %al
 8049b87:	0f b6 c0             	movzbl %al,%eax
 8049b8a:	f7 d8                	neg    %eax
 8049b8c:	8b bc 24 4c a0 00 00 	mov    0xa04c(%esp),%edi
 8049b93:	65 33 3d 14 00 00 00 	xor    %gs:0x14,%edi
 8049b9a:	0f 84 b0 00 00 00    	je     8049c50 <submitr+0x7d1>
 8049ba0:	e9 a6 00 00 00       	jmp    8049c4b <submitr+0x7cc>
 8049ba5:	a1 6c a3 04 08       	mov    0x804a36c,%eax
 8049baa:	8b 7c 24 14          	mov    0x14(%esp),%edi
 8049bae:	89 07                	mov    %eax,(%edi)
 8049bb0:	a1 ab a3 04 08       	mov    0x804a3ab,%eax
 8049bb5:	89 47 3f             	mov    %eax,0x3f(%edi)
 8049bb8:	89 f8                	mov    %edi,%eax
 8049bba:	83 c7 04             	add    $0x4,%edi
 8049bbd:	83 e7 fc             	and    $0xfffffffc,%edi
 8049bc0:	29 f8                	sub    %edi,%eax
 8049bc2:	be 6c a3 04 08       	mov    $0x804a36c,%esi
 8049bc7:	29 c6                	sub    %eax,%esi
 8049bc9:	83 c0 43             	add    $0x43,%eax
 8049bcc:	c1 e8 02             	shr    $0x2,%eax
 8049bcf:	89 c1                	mov    %eax,%ecx
 8049bd1:	f3 a5                	rep movsl %ds:(%esi),%es:(%edi)
 8049bd3:	83 ec 0c             	sub    $0xc,%esp
 8049bd6:	ff 74 24 10          	pushl  0x10(%esp)
 8049bda:	e8 c1 ec ff ff       	call   80488a0 <close@plt>
 8049bdf:	83 c4 10             	add    $0x10,%esp
 8049be2:	b8 ff ff ff ff       	mov    $0xffffffff,%eax
 8049be7:	eb a3                	jmp    8049b8c <submitr+0x70d>
 8049be9:	83 ec 0c             	sub    $0xc,%esp
 8049bec:	8d 84 24 58 40 00 00 	lea    0x4058(%esp),%eax
 8049bf3:	50                   	push   %eax
 8049bf4:	ff 74 24 20          	pushl  0x20(%esp)
 8049bf8:	ff 74 24 2c          	pushl  0x2c(%esp)
 8049bfc:	ff 74 24 24          	pushl  0x24(%esp)
 8049c00:	ff 74 24 24          	pushl  0x24(%esp)
 8049c04:	68 b0 a3 04 08       	push   $0x804a3b0
 8049c09:	68 00 20 00 00       	push   $0x2000
 8049c0e:	6a 01                	push   $0x1
 8049c10:	8d bc 24 78 20 00 00 	lea    0x2078(%esp),%edi
 8049c17:	57                   	push   %edi
 8049c18:	e8 a3 ec ff ff       	call   80488c0 <__sprintf_chk@plt>
 8049c1d:	b8 00 00 00 00       	mov    $0x0,%eax
 8049c22:	b9 ff ff ff ff       	mov    $0xffffffff,%ecx
 8049c27:	f2 ae                	repnz scas %es:(%edi),%al
 8049c29:	f7 d1                	not    %ecx
 8049c2b:	8d 79 ff             	lea    -0x1(%ecx),%edi
 8049c2e:	83 c4 30             	add    $0x30,%esp
 8049c31:	89 fb                	mov    %edi,%ebx
 8049c33:	8d b4 24 4c 20 00 00 	lea    0x204c(%esp),%esi
 8049c3a:	8b 6c 24 04          	mov    0x4(%esp),%ebp
 8049c3e:	85 ff                	test   %edi,%edi
 8049c40:	0f 85 f9 fb ff ff    	jne    804983f <submitr+0x3c0>
 8049c46:	e9 88 fc ff ff       	jmp    80498d3 <submitr+0x454>
 8049c4b:	e8 40 eb ff ff       	call   8048790 <__stack_chk_fail@plt>
 8049c50:	81 c4 5c a0 00 00    	add    $0xa05c,%esp
 8049c56:	5b                   	pop    %ebx
 8049c57:	5e                   	pop    %esi
 8049c58:	5f                   	pop    %edi
 8049c59:	5d                   	pop    %ebp
 8049c5a:	c3                   	ret    

08049c5b <init_timeout>:
 8049c5b:	53                   	push   %ebx
 8049c5c:	83 ec 08             	sub    $0x8,%esp
 8049c5f:	8b 5c 24 10          	mov    0x10(%esp),%ebx
 8049c63:	85 db                	test   %ebx,%ebx
 8049c65:	74 24                	je     8049c8b <init_timeout+0x30>
 8049c67:	83 ec 08             	sub    $0x8,%esp
 8049c6a:	68 88 93 04 08       	push   $0x8049388
 8049c6f:	6a 0e                	push   $0xe
 8049c71:	e8 ea ea ff ff       	call   8048760 <signal@plt>
 8049c76:	85 db                	test   %ebx,%ebx
 8049c78:	b8 00 00 00 00       	mov    $0x0,%eax
 8049c7d:	0f 48 d8             	cmovs  %eax,%ebx
 8049c80:	89 1c 24             	mov    %ebx,(%esp)
 8049c83:	e8 f8 ea ff ff       	call   8048780 <alarm@plt>
 8049c88:	83 c4 10             	add    $0x10,%esp
 8049c8b:	83 c4 08             	add    $0x8,%esp
 8049c8e:	5b                   	pop    %ebx
 8049c8f:	c3                   	ret    

08049c90 <init_driver>:
 8049c90:	57                   	push   %edi
 8049c91:	56                   	push   %esi
 8049c92:	53                   	push   %ebx
 8049c93:	83 ec 28             	sub    $0x28,%esp
 8049c96:	8b 74 24 38          	mov    0x38(%esp),%esi
 8049c9a:	65 a1 14 00 00 00    	mov    %gs:0x14,%eax
 8049ca0:	89 44 24 24          	mov    %eax,0x24(%esp)
 8049ca4:	31 c0                	xor    %eax,%eax
 8049ca6:	6a 01                	push   $0x1
 8049ca8:	6a 0d                	push   $0xd
 8049caa:	e8 b1 ea ff ff       	call   8048760 <signal@plt>
 8049caf:	83 c4 08             	add    $0x8,%esp
 8049cb2:	6a 01                	push   $0x1
 8049cb4:	6a 1d                	push   $0x1d
 8049cb6:	e8 a5 ea ff ff       	call   8048760 <signal@plt>
 8049cbb:	83 c4 08             	add    $0x8,%esp
 8049cbe:	6a 01                	push   $0x1
 8049cc0:	6a 1d                	push   $0x1d
 8049cc2:	e8 99 ea ff ff       	call   8048760 <signal@plt>
 8049cc7:	83 c4 0c             	add    $0xc,%esp
 8049cca:	6a 00                	push   $0x0
 8049ccc:	6a 01                	push   $0x1
 8049cce:	6a 02                	push   $0x2
 8049cd0:	e8 7b eb ff ff       	call   8048850 <socket@plt>
 8049cd5:	83 c4 10             	add    $0x10,%esp
 8049cd8:	85 c0                	test   %eax,%eax
 8049cda:	79 4e                	jns    8049d2a <init_driver+0x9a>
 8049cdc:	c7 06 45 72 72 6f    	movl   $0x6f727245,(%esi)
 8049ce2:	c7 46 04 72 3a 20 43 	movl   $0x43203a72,0x4(%esi)
 8049ce9:	c7 46 08 6c 69 65 6e 	movl   $0x6e65696c,0x8(%esi)
 8049cf0:	c7 46 0c 74 20 75 6e 	movl   $0x6e752074,0xc(%esi)
 8049cf7:	c7 46 10 61 62 6c 65 	movl   $0x656c6261,0x10(%esi)
 8049cfe:	c7 46 14 20 74 6f 20 	movl   $0x206f7420,0x14(%esi)
 8049d05:	c7 46 18 63 72 65 61 	movl   $0x61657263,0x18(%esi)
 8049d0c:	c7 46 1c 74 65 20 73 	movl   $0x73206574,0x1c(%esi)
 8049d13:	c7 46 20 6f 63 6b 65 	movl   $0x656b636f,0x20(%esi)
 8049d1a:	66 c7 46 24 74 00    	movw   $0x74,0x24(%esi)
 8049d20:	b8 ff ff ff ff       	mov    $0xffffffff,%eax
 8049d25:	e9 1f 01 00 00       	jmp    8049e49 <init_driver+0x1b9>
 8049d2a:	89 c3                	mov    %eax,%ebx
 8049d2c:	83 ec 0c             	sub    $0xc,%esp
 8049d2f:	68 09 a3 04 08       	push   $0x804a309
 8049d34:	e8 37 eb ff ff       	call   8048870 <gethostbyname@plt>
 8049d39:	83 c4 10             	add    $0x10,%esp
 8049d3c:	85 c0                	test   %eax,%eax
 8049d3e:	75 6c                	jne    8049dac <init_driver+0x11c>
 8049d40:	c7 06 45 72 72 6f    	movl   $0x6f727245,(%esi)
 8049d46:	c7 46 04 72 3a 20 44 	movl   $0x44203a72,0x4(%esi)
 8049d4d:	c7 46 08 4e 53 20 69 	movl   $0x6920534e,0x8(%esi)
 8049d54:	c7 46 0c 73 20 75 6e 	movl   $0x6e752073,0xc(%esi)
 8049d5b:	c7 46 10 61 62 6c 65 	movl   $0x656c6261,0x10(%esi)
 8049d62:	c7 46 14 20 74 6f 20 	movl   $0x206f7420,0x14(%esi)
 8049d69:	c7 46 18 72 65 73 6f 	movl   $0x6f736572,0x18(%esi)
 8049d70:	c7 46 1c 6c 76 65 20 	movl   $0x2065766c,0x1c(%esi)
 8049d77:	c7 46 20 73 65 72 76 	movl   $0x76726573,0x20(%esi)
 8049d7e:	c7 46 24 65 72 20 61 	movl   $0x61207265,0x24(%esi)
 8049d85:	c7 46 28 64 64 72 65 	movl   $0x65726464,0x28(%esi)
 8049d8c:	66 c7 46 2c 73 73    	movw   $0x7373,0x2c(%esi)
 8049d92:	c6 46 2e 00          	movb   $0x0,0x2e(%esi)
 8049d96:	83 ec 0c             	sub    $0xc,%esp
 8049d99:	53                   	push   %ebx
 8049d9a:	e8 01 eb ff ff       	call   80488a0 <close@plt>
 8049d9f:	83 c4 10             	add    $0x10,%esp
 8049da2:	b8 ff ff ff ff       	mov    $0xffffffff,%eax
 8049da7:	e9 9d 00 00 00       	jmp    8049e49 <init_driver+0x1b9>
 8049dac:	8d 7c 24 0c          	lea    0xc(%esp),%edi
 8049db0:	c7 44 24 0c 00 00 00 	movl   $0x0,0xc(%esp)
 8049db7:	00 
 8049db8:	c7 44 24 10 00 00 00 	movl   $0x0,0x10(%esp)
 8049dbf:	00 
 8049dc0:	c7 44 24 14 00 00 00 	movl   $0x0,0x14(%esp)
 8049dc7:	00 
 8049dc8:	c7 44 24 18 00 00 00 	movl   $0x0,0x18(%esp)
 8049dcf:	00 
 8049dd0:	66 c7 44 24 0c 02 00 	movw   $0x2,0xc(%esp)
 8049dd7:	6a 0c                	push   $0xc
 8049dd9:	ff 70 0c             	pushl  0xc(%eax)
 8049ddc:	8b 40 10             	mov    0x10(%eax),%eax
 8049ddf:	ff 30                	pushl  (%eax)
 8049de1:	8d 44 24 1c          	lea    0x1c(%esp),%eax
 8049de5:	50                   	push   %eax
 8049de6:	e8 e5 e9 ff ff       	call   80487d0 <__memmove_chk@plt>
 8049deb:	66 c7 44 24 1e 3b 6e 	movw   $0x6e3b,0x1e(%esp)
 8049df2:	83 c4 0c             	add    $0xc,%esp
 8049df5:	6a 10                	push   $0x10
 8049df7:	57                   	push   %edi
 8049df8:	53                   	push   %ebx
 8049df9:	e8 92 ea ff ff       	call   8048890 <connect@plt>
 8049dfe:	83 c4 10             	add    $0x10,%esp
 8049e01:	85 c0                	test   %eax,%eax
 8049e03:	79 2a                	jns    8049e2f <init_driver+0x19f>
 8049e05:	83 ec 0c             	sub    $0xc,%esp
 8049e08:	68 09 a3 04 08       	push   $0x804a309
 8049e0d:	68 08 a4 04 08       	push   $0x804a408
 8049e12:	6a ff                	push   $0xffffffff
 8049e14:	6a 01                	push   $0x1
 8049e16:	56                   	push   %esi
 8049e17:	e8 a4 ea ff ff       	call   80488c0 <__sprintf_chk@plt>
 8049e1c:	83 c4 14             	add    $0x14,%esp
 8049e1f:	53                   	push   %ebx
 8049e20:	e8 7b ea ff ff       	call   80488a0 <close@plt>
 8049e25:	83 c4 10             	add    $0x10,%esp
 8049e28:	b8 ff ff ff ff       	mov    $0xffffffff,%eax
 8049e2d:	eb 1a                	jmp    8049e49 <init_driver+0x1b9>
 8049e2f:	83 ec 0c             	sub    $0xc,%esp
 8049e32:	53                   	push   %ebx
 8049e33:	e8 68 ea ff ff       	call   80488a0 <close@plt>
 8049e38:	66 c7 06 4f 4b       	movw   $0x4b4f,(%esi)
 8049e3d:	c6 46 02 00          	movb   $0x0,0x2(%esi)
 8049e41:	83 c4 10             	add    $0x10,%esp
 8049e44:	b8 00 00 00 00       	mov    $0x0,%eax
 8049e49:	8b 54 24 1c          	mov    0x1c(%esp),%edx
 8049e4d:	65 33 15 14 00 00 00 	xor    %gs:0x14,%edx
 8049e54:	74 05                	je     8049e5b <init_driver+0x1cb>
 8049e56:	e8 35 e9 ff ff       	call   8048790 <__stack_chk_fail@plt>
 8049e5b:	83 c4 20             	add    $0x20,%esp
 8049e5e:	5b                   	pop    %ebx
 8049e5f:	5e                   	pop    %esi
 8049e60:	5f                   	pop    %edi
 8049e61:	c3                   	ret    

08049e62 <driver_post>:
 8049e62:	53                   	push   %ebx
 8049e63:	83 ec 08             	sub    $0x8,%esp
 8049e66:	8b 44 24 10          	mov    0x10(%esp),%eax
 8049e6a:	8b 5c 24 20          	mov    0x20(%esp),%ebx
 8049e6e:	83 7c 24 1c 00       	cmpl   $0x0,0x1c(%esp)
 8049e73:	74 26                	je     8049e9b <driver_post+0x39>
 8049e75:	83 ec 04             	sub    $0x4,%esp
 8049e78:	ff 74 24 1c          	pushl  0x1c(%esp)
 8049e7c:	68 48 a4 04 08       	push   $0x804a448
 8049e81:	6a 01                	push   $0x1
 8049e83:	e8 b8 e9 ff ff       	call   8048840 <__printf_chk@plt>
 8049e88:	66 c7 03 4f 4b       	movw   $0x4b4f,(%ebx)
 8049e8d:	c6 43 02 00          	movb   $0x0,0x2(%ebx)
 8049e91:	83 c4 10             	add    $0x10,%esp
 8049e94:	b8 00 00 00 00       	mov    $0x0,%eax
 8049e99:	eb 3f                	jmp    8049eda <driver_post+0x78>
 8049e9b:	85 c0                	test   %eax,%eax
 8049e9d:	74 2d                	je     8049ecc <driver_post+0x6a>
 8049e9f:	80 38 00             	cmpb   $0x0,(%eax)
 8049ea2:	74 28                	je     8049ecc <driver_post+0x6a>
 8049ea4:	53                   	push   %ebx
 8049ea5:	ff 74 24 1c          	pushl  0x1c(%esp)
 8049ea9:	68 5f a4 04 08       	push   $0x804a45f
 8049eae:	ff 74 24 20          	pushl  0x20(%esp)
 8049eb2:	50                   	push   %eax
 8049eb3:	68 63 a4 04 08       	push   $0x804a463
 8049eb8:	68 6e 3b 00 00       	push   $0x3b6e
 8049ebd:	68 09 a3 04 08       	push   $0x804a309
 8049ec2:	e8 b8 f5 ff ff       	call   804947f <submitr>
 8049ec7:	83 c4 20             	add    $0x20,%esp
 8049eca:	eb 0e                	jmp    8049eda <driver_post+0x78>
 8049ecc:	66 c7 03 4f 4b       	movw   $0x4b4f,(%ebx)
 8049ed1:	c6 43 02 00          	movb   $0x0,0x2(%ebx)
 8049ed5:	b8 00 00 00 00       	mov    $0x0,%eax
 8049eda:	83 c4 08             	add    $0x8,%esp
 8049edd:	5b                   	pop    %ebx
 8049ede:	c3                   	ret    
 8049edf:	90                   	nop

08049ee0 <__libc_csu_init>:
 8049ee0:	55                   	push   %ebp
 8049ee1:	57                   	push   %edi
 8049ee2:	56                   	push   %esi
 8049ee3:	53                   	push   %ebx
 8049ee4:	e8 27 ea ff ff       	call   8048910 <__x86.get_pc_thunk.bx>
 8049ee9:	81 c3 17 21 00 00    	add    $0x2117,%ebx
 8049eef:	83 ec 0c             	sub    $0xc,%esp
 8049ef2:	8b 6c 24 20          	mov    0x20(%esp),%ebp
 8049ef6:	8d b3 0c ff ff ff    	lea    -0xf4(%ebx),%esi
 8049efc:	e8 f3 e7 ff ff       	call   80486f4 <_init>
 8049f01:	8d 83 08 ff ff ff    	lea    -0xf8(%ebx),%eax
 8049f07:	29 c6                	sub    %eax,%esi
 8049f09:	c1 fe 02             	sar    $0x2,%esi
 8049f0c:	85 f6                	test   %esi,%esi
 8049f0e:	74 25                	je     8049f35 <__libc_csu_init+0x55>
 8049f10:	31 ff                	xor    %edi,%edi
 8049f12:	8d b6 00 00 00 00    	lea    0x0(%esi),%esi
 8049f18:	83 ec 04             	sub    $0x4,%esp
 8049f1b:	ff 74 24 2c          	pushl  0x2c(%esp)
 8049f1f:	ff 74 24 2c          	pushl  0x2c(%esp)
 8049f23:	55                   	push   %ebp
 8049f24:	ff 94 bb 08 ff ff ff 	call   *-0xf8(%ebx,%edi,4)
 8049f2b:	83 c7 01             	add    $0x1,%edi
 8049f2e:	83 c4 10             	add    $0x10,%esp
 8049f31:	39 f7                	cmp    %esi,%edi
 8049f33:	75 e3                	jne    8049f18 <__libc_csu_init+0x38>
 8049f35:	83 c4 0c             	add    $0xc,%esp
 8049f38:	5b                   	pop    %ebx
 8049f39:	5e                   	pop    %esi
 8049f3a:	5f                   	pop    %edi
 8049f3b:	5d                   	pop    %ebp
 8049f3c:	c3                   	ret    
 8049f3d:	8d 76 00             	lea    0x0(%esi),%esi

08049f40 <__libc_csu_fini>:
 8049f40:	f3 c3                	repz ret 

Disassembly of section .fini:

08049f44 <_fini>:
 8049f44:	53                   	push   %ebx
 8049f45:	83 ec 08             	sub    $0x8,%esp
 8049f48:	e8 c3 e9 ff ff       	call   8048910 <__x86.get_pc_thunk.bx>
 8049f4d:	81 c3 b3 20 00 00    	add    $0x20b3,%ebx
 8049f53:	83 c4 08             	add    $0x8,%esp
 8049f56:	5b                   	pop    %ebx
 8049f57:	c3                   	ret    
