
passcode:     file format elf64-x86-64


Disassembly of section .init:

00000000004005a0 <_init>:
  4005a0:	48 83 ec 08          	sub    $0x8,%rsp
  4005a4:	48 8b 05 4d 0a 20 00 	mov    0x200a4d(%rip),%rax        # 600ff8 <_DYNAMIC+0x1d0>
  4005ab:	48 85 c0             	test   %rax,%rax
  4005ae:	74 05                	je     4005b5 <_init+0x15>
  4005b0:	e8 9b 00 00 00       	callq  400650 <exit@plt+0x10>
  4005b5:	48 83 c4 08          	add    $0x8,%rsp
  4005b9:	c3                   	retq   

Disassembly of section .plt:

00000000004005c0 <puts@plt-0x10>:
  4005c0:	ff 35 42 0a 20 00    	pushq  0x200a42(%rip)        # 601008 <_GLOBAL_OFFSET_TABLE_+0x8>
  4005c6:	ff 25 44 0a 20 00    	jmpq   *0x200a44(%rip)        # 601010 <_GLOBAL_OFFSET_TABLE_+0x10>
  4005cc:	0f 1f 40 00          	nopl   0x0(%rax)

00000000004005d0 <puts@plt>:
  4005d0:	ff 25 42 0a 20 00    	jmpq   *0x200a42(%rip)        # 601018 <_GLOBAL_OFFSET_TABLE_+0x18>
  4005d6:	68 00 00 00 00       	pushq  $0x0
  4005db:	e9 e0 ff ff ff       	jmpq   4005c0 <_init+0x20>

00000000004005e0 <__stack_chk_fail@plt>:
  4005e0:	ff 25 3a 0a 20 00    	jmpq   *0x200a3a(%rip)        # 601020 <_GLOBAL_OFFSET_TABLE_+0x20>
  4005e6:	68 01 00 00 00       	pushq  $0x1
  4005eb:	e9 d0 ff ff ff       	jmpq   4005c0 <_init+0x20>

00000000004005f0 <system@plt>:
  4005f0:	ff 25 32 0a 20 00    	jmpq   *0x200a32(%rip)        # 601028 <_GLOBAL_OFFSET_TABLE_+0x28>
  4005f6:	68 02 00 00 00       	pushq  $0x2
  4005fb:	e9 c0 ff ff ff       	jmpq   4005c0 <_init+0x20>

0000000000400600 <printf@plt>:
  400600:	ff 25 2a 0a 20 00    	jmpq   *0x200a2a(%rip)        # 601030 <_GLOBAL_OFFSET_TABLE_+0x30>
  400606:	68 03 00 00 00       	pushq  $0x3
  40060b:	e9 b0 ff ff ff       	jmpq   4005c0 <_init+0x20>

0000000000400610 <__libc_start_main@plt>:
  400610:	ff 25 22 0a 20 00    	jmpq   *0x200a22(%rip)        # 601038 <_GLOBAL_OFFSET_TABLE_+0x38>
  400616:	68 04 00 00 00       	pushq  $0x4
  40061b:	e9 a0 ff ff ff       	jmpq   4005c0 <_init+0x20>

0000000000400620 <fflush@plt>:
  400620:	ff 25 1a 0a 20 00    	jmpq   *0x200a1a(%rip)        # 601040 <_GLOBAL_OFFSET_TABLE_+0x40>
  400626:	68 05 00 00 00       	pushq  $0x5
  40062b:	e9 90 ff ff ff       	jmpq   4005c0 <_init+0x20>

0000000000400630 <__isoc99_scanf@plt>:
  400630:	ff 25 12 0a 20 00    	jmpq   *0x200a12(%rip)        # 601048 <_GLOBAL_OFFSET_TABLE_+0x48>
  400636:	68 06 00 00 00       	pushq  $0x6
  40063b:	e9 80 ff ff ff       	jmpq   4005c0 <_init+0x20>

0000000000400640 <exit@plt>:
  400640:	ff 25 0a 0a 20 00    	jmpq   *0x200a0a(%rip)        # 601050 <_GLOBAL_OFFSET_TABLE_+0x50>
  400646:	68 07 00 00 00       	pushq  $0x7
  40064b:	e9 70 ff ff ff       	jmpq   4005c0 <_init+0x20>

Disassembly of section .plt.got:

0000000000400650 <.plt.got>:
  400650:	ff 25 a2 09 20 00    	jmpq   *0x2009a2(%rip)        # 600ff8 <_DYNAMIC+0x1d0>
  400656:	66 90                	xchg   %ax,%ax

Disassembly of section .text:

0000000000400660 <_start>:
  400660:	31 ed                	xor    %ebp,%ebp
  400662:	49 89 d1             	mov    %rdx,%r9
  400665:	5e                   	pop    %rsi
  400666:	48 89 e2             	mov    %rsp,%rdx
  400669:	48 83 e4 f0          	and    $0xfffffffffffffff0,%rsp
  40066d:	50                   	push   %rax
  40066e:	54                   	push   %rsp
  40066f:	49 c7 c0 10 09 40 00 	mov    $0x400910,%r8
  400676:	48 c7 c1 a0 08 40 00 	mov    $0x4008a0,%rcx
  40067d:	48 c7 c7 64 08 40 00 	mov    $0x400864,%rdi
  400684:	e8 87 ff ff ff       	callq  400610 <__libc_start_main@plt>
  400689:	f4                   	hlt    
  40068a:	66 0f 1f 44 00 00    	nopw   0x0(%rax,%rax,1)

0000000000400690 <deregister_tm_clones>:
  400690:	b8 6f 10 60 00       	mov    $0x60106f,%eax
  400695:	55                   	push   %rbp
  400696:	48 2d 68 10 60 00    	sub    $0x601068,%rax
  40069c:	48 83 f8 0e          	cmp    $0xe,%rax
  4006a0:	48 89 e5             	mov    %rsp,%rbp
  4006a3:	76 1b                	jbe    4006c0 <deregister_tm_clones+0x30>
  4006a5:	b8 00 00 00 00       	mov    $0x0,%eax
  4006aa:	48 85 c0             	test   %rax,%rax
  4006ad:	74 11                	je     4006c0 <deregister_tm_clones+0x30>
  4006af:	5d                   	pop    %rbp
  4006b0:	bf 68 10 60 00       	mov    $0x601068,%edi
  4006b5:	ff e0                	jmpq   *%rax
  4006b7:	66 0f 1f 84 00 00 00 	nopw   0x0(%rax,%rax,1)
  4006be:	00 00 
  4006c0:	5d                   	pop    %rbp
  4006c1:	c3                   	retq   
  4006c2:	0f 1f 40 00          	nopl   0x0(%rax)
  4006c6:	66 2e 0f 1f 84 00 00 	nopw   %cs:0x0(%rax,%rax,1)
  4006cd:	00 00 00 

00000000004006d0 <register_tm_clones>:
  4006d0:	be 68 10 60 00       	mov    $0x601068,%esi
  4006d5:	55                   	push   %rbp
  4006d6:	48 81 ee 68 10 60 00 	sub    $0x601068,%rsi
  4006dd:	48 c1 fe 03          	sar    $0x3,%rsi
  4006e1:	48 89 e5             	mov    %rsp,%rbp
  4006e4:	48 89 f0             	mov    %rsi,%rax
  4006e7:	48 c1 e8 3f          	shr    $0x3f,%rax
  4006eb:	48 01 c6             	add    %rax,%rsi
  4006ee:	48 d1 fe             	sar    %rsi
  4006f1:	74 15                	je     400708 <register_tm_clones+0x38>
  4006f3:	b8 00 00 00 00       	mov    $0x0,%eax
  4006f8:	48 85 c0             	test   %rax,%rax
  4006fb:	74 0b                	je     400708 <register_tm_clones+0x38>
  4006fd:	5d                   	pop    %rbp
  4006fe:	bf 68 10 60 00       	mov    $0x601068,%edi
  400703:	ff e0                	jmpq   *%rax
  400705:	0f 1f 00             	nopl   (%rax)
  400708:	5d                   	pop    %rbp
  400709:	c3                   	retq   
  40070a:	66 0f 1f 44 00 00    	nopw   0x0(%rax,%rax,1)

0000000000400710 <__do_global_dtors_aux>:
  400710:	80 3d 61 09 20 00 00 	cmpb   $0x0,0x200961(%rip)        # 601078 <completed.7585>
  400717:	75 11                	jne    40072a <__do_global_dtors_aux+0x1a>
  400719:	55                   	push   %rbp
  40071a:	48 89 e5             	mov    %rsp,%rbp
  40071d:	e8 6e ff ff ff       	callq  400690 <deregister_tm_clones>
  400722:	5d                   	pop    %rbp
  400723:	c6 05 4e 09 20 00 01 	movb   $0x1,0x20094e(%rip)        # 601078 <completed.7585>
  40072a:	f3 c3                	repz retq 
  40072c:	0f 1f 40 00          	nopl   0x0(%rax)

0000000000400730 <frame_dummy>:
  400730:	bf 20 0e 60 00       	mov    $0x600e20,%edi
  400735:	48 83 3f 00          	cmpq   $0x0,(%rdi)
  400739:	75 05                	jne    400740 <frame_dummy+0x10>
  40073b:	eb 93                	jmp    4006d0 <register_tm_clones>
  40073d:	0f 1f 00             	nopl   (%rax)
  400740:	b8 00 00 00 00       	mov    $0x0,%eax
  400745:	48 85 c0             	test   %rax,%rax
  400748:	74 f1                	je     40073b <frame_dummy+0xb>
  40074a:	55                   	push   %rbp
  40074b:	48 89 e5             	mov    %rsp,%rbp
  40074e:	ff d0                	callq  *%rax
  400750:	5d                   	pop    %rbp
  400751:	e9 7a ff ff ff       	jmpq   4006d0 <register_tm_clones>

0000000000400756 <login>:
  400756:	55                   	push   %rbp
  400757:	48 89 e5             	mov    %rsp,%rbp
  40075a:	48 83 ec 10          	sub    $0x10,%rsp
  40075e:	bf 28 09 40 00       	mov    $0x400928,%edi
  400763:	b8 00 00 00 00       	mov    $0x0,%eax
  400768:	e8 93 fe ff ff       	callq  400600 <printf@plt>
  40076d:	8b 45 f8             	mov    -0x8(%rbp),%eax
  400770:	89 c6                	mov    %eax,%esi
  400772:	bf 3b 09 40 00       	mov    $0x40093b,%edi
  400777:	b8 00 00 00 00       	mov    $0x0,%eax
  40077c:	e8 af fe ff ff       	callq  400630 <__isoc99_scanf@plt>
  400781:	48 8b 05 e8 08 20 00 	mov    0x2008e8(%rip),%rax        # 601070 <stdin@@GLIBC_2.2.5>
  400788:	48 89 c7             	mov    %rax,%rdi
  40078b:	e8 90 fe ff ff       	callq  400620 <fflush@plt>
  400790:	bf 3e 09 40 00       	mov    $0x40093e,%edi
  400795:	b8 00 00 00 00       	mov    $0x0,%eax
  40079a:	e8 61 fe ff ff       	callq  400600 <printf@plt>
  40079f:	8b 45 fc             	mov    -0x4(%rbp),%eax
  4007a2:	89 c6                	mov    %eax,%esi
  4007a4:	bf 3b 09 40 00       	mov    $0x40093b,%edi
  4007a9:	b8 00 00 00 00       	mov    $0x0,%eax
  4007ae:	e8 7d fe ff ff       	callq  400630 <__isoc99_scanf@plt>
  4007b3:	bf 51 09 40 00       	mov    $0x400951,%edi
  4007b8:	e8 13 fe ff ff       	callq  4005d0 <puts@plt>
  4007bd:	81 7d f8 e6 28 05 00 	cmpl   $0x528e6,-0x8(%rbp)
  4007c4:	75 1f                	jne    4007e5 <login+0x8f>
  4007c6:	81 7d fc c9 07 cc 00 	cmpl   $0xcc07c9,-0x4(%rbp)
  4007cd:	75 16                	jne    4007e5 <login+0x8f>
  4007cf:	bf 5d 09 40 00       	mov    $0x40095d,%edi
  4007d4:	e8 f7 fd ff ff       	callq  4005d0 <puts@plt>
  4007d9:	bf 67 09 40 00       	mov    $0x400967,%edi
  4007de:	e8 0d fe ff ff       	callq  4005f0 <system@plt>
  4007e3:	eb 14                	jmp    4007f9 <login+0xa3>
  4007e5:	bf 75 09 40 00       	mov    $0x400975,%edi
  4007ea:	e8 e1 fd ff ff       	callq  4005d0 <puts@plt>
  4007ef:	bf 00 00 00 00       	mov    $0x0,%edi
  4007f4:	e8 47 fe ff ff       	callq  400640 <exit@plt>
  4007f9:	c9                   	leaveq 
  4007fa:	c3                   	retq   

00000000004007fb <welcome>:
  4007fb:	55                   	push   %rbp
  4007fc:	48 89 e5             	mov    %rsp,%rbp
  4007ff:	48 83 ec 70          	sub    $0x70,%rsp
  400803:	64 48 8b 04 25 28 00 	mov    %fs:0x28,%rax
  40080a:	00 00 
  40080c:	48 89 45 f8          	mov    %rax,-0x8(%rbp)
  400810:	31 c0                	xor    %eax,%eax
  400812:	bf 83 09 40 00       	mov    $0x400983,%edi
  400817:	b8 00 00 00 00       	mov    $0x0,%eax
  40081c:	e8 df fd ff ff       	callq  400600 <printf@plt>
  400821:	48 8d 45 90          	lea    -0x70(%rbp),%rax
  400825:	48 89 c6             	mov    %rax,%rsi
  400828:	bf 95 09 40 00       	mov    $0x400995,%edi
  40082d:	b8 00 00 00 00       	mov    $0x0,%eax
  400832:	e8 f9 fd ff ff       	callq  400630 <__isoc99_scanf@plt>
  400837:	48 8d 45 90          	lea    -0x70(%rbp),%rax
  40083b:	48 89 c6             	mov    %rax,%rsi
  40083e:	bf 9b 09 40 00       	mov    $0x40099b,%edi
  400843:	b8 00 00 00 00       	mov    $0x0,%eax
  400848:	e8 b3 fd ff ff       	callq  400600 <printf@plt>
  40084d:	90                   	nop
  40084e:	48 8b 45 f8          	mov    -0x8(%rbp),%rax
  400852:	64 48 33 04 25 28 00 	xor    %fs:0x28,%rax
  400859:	00 00 
  40085b:	74 05                	je     400862 <welcome+0x67>
  40085d:	e8 7e fd ff ff       	callq  4005e0 <__stack_chk_fail@plt>
  400862:	c9                   	leaveq 
  400863:	c3                   	retq   

0000000000400864 <main>:
  400864:	55                   	push   %rbp
  400865:	48 89 e5             	mov    %rsp,%rbp
  400868:	bf a8 09 40 00       	mov    $0x4009a8,%edi
  40086d:	e8 5e fd ff ff       	callq  4005d0 <puts@plt>
  400872:	b8 00 00 00 00       	mov    $0x0,%eax
  400877:	e8 7f ff ff ff       	callq  4007fb <welcome>
  40087c:	b8 00 00 00 00       	mov    $0x0,%eax
  400881:	e8 d0 fe ff ff       	callq  400756 <login>
  400886:	bf d0 09 40 00       	mov    $0x4009d0,%edi
  40088b:	e8 40 fd ff ff       	callq  4005d0 <puts@plt>
  400890:	b8 00 00 00 00       	mov    $0x0,%eax
  400895:	5d                   	pop    %rbp
  400896:	c3                   	retq   
  400897:	66 0f 1f 84 00 00 00 	nopw   0x0(%rax,%rax,1)
  40089e:	00 00 

00000000004008a0 <__libc_csu_init>:
  4008a0:	41 57                	push   %r15
  4008a2:	41 56                	push   %r14
  4008a4:	41 89 ff             	mov    %edi,%r15d
  4008a7:	41 55                	push   %r13
  4008a9:	41 54                	push   %r12
  4008ab:	4c 8d 25 5e 05 20 00 	lea    0x20055e(%rip),%r12        # 600e10 <__frame_dummy_init_array_entry>
  4008b2:	55                   	push   %rbp
  4008b3:	48 8d 2d 5e 05 20 00 	lea    0x20055e(%rip),%rbp        # 600e18 <__init_array_end>
  4008ba:	53                   	push   %rbx
  4008bb:	49 89 f6             	mov    %rsi,%r14
  4008be:	49 89 d5             	mov    %rdx,%r13
  4008c1:	4c 29 e5             	sub    %r12,%rbp
  4008c4:	48 83 ec 08          	sub    $0x8,%rsp
  4008c8:	48 c1 fd 03          	sar    $0x3,%rbp
  4008cc:	e8 cf fc ff ff       	callq  4005a0 <_init>
  4008d1:	48 85 ed             	test   %rbp,%rbp
  4008d4:	74 20                	je     4008f6 <__libc_csu_init+0x56>
  4008d6:	31 db                	xor    %ebx,%ebx
  4008d8:	0f 1f 84 00 00 00 00 	nopl   0x0(%rax,%rax,1)
  4008df:	00 
  4008e0:	4c 89 ea             	mov    %r13,%rdx
  4008e3:	4c 89 f6             	mov    %r14,%rsi
  4008e6:	44 89 ff             	mov    %r15d,%edi
  4008e9:	41 ff 14 dc          	callq  *(%r12,%rbx,8)
  4008ed:	48 83 c3 01          	add    $0x1,%rbx
  4008f1:	48 39 eb             	cmp    %rbp,%rbx
  4008f4:	75 ea                	jne    4008e0 <__libc_csu_init+0x40>
  4008f6:	48 83 c4 08          	add    $0x8,%rsp
  4008fa:	5b                   	pop    %rbx
  4008fb:	5d                   	pop    %rbp
  4008fc:	41 5c                	pop    %r12
  4008fe:	41 5d                	pop    %r13
  400900:	41 5e                	pop    %r14
  400902:	41 5f                	pop    %r15
  400904:	c3                   	retq   
  400905:	90                   	nop
  400906:	66 2e 0f 1f 84 00 00 	nopw   %cs:0x0(%rax,%rax,1)
  40090d:	00 00 00 

0000000000400910 <__libc_csu_fini>:
  400910:	f3 c3                	repz retq 

Disassembly of section .fini:

0000000000400914 <_fini>:
  400914:	48 83 ec 08          	sub    $0x8,%rsp
  400918:	48 83 c4 08          	add    $0x8,%rsp
  40091c:	c3                   	retq   
